.text
.p2align 4,,15
.globl  _Z14spmv_interruptPfPmS0_S_S_mm
.type  _Z14spmv_interruptPfPmS0_S_S_mm, @function
.globl  _Z14spmv_interruptPfPmS0_S_S_mm_rf
.type  _Z14spmv_interruptPfPmS0_S_S_mm_rf, @function
.globl  _Z23spmv_interrupt_col_loopPfPmS0_S_S_mmfS_
.type  _Z23spmv_interrupt_col_loopPfPmS0_S_S_mmfS_, @function
.globl  _Z23spmv_interrupt_col_loopPfPmS0_S_S_mmfS__rf
.type  _Z23spmv_interrupt_col_loopPfPmS0_S_S_mmfS__rf, @function
.globl  spmv0
.type  spmv0, @function
.globl  spmv0_rf
.type  spmv0_rf, @function
.globl  spmv1
.type  spmv1, @function
.globl  spmv1_rf
.type  spmv1_rf, @function
.globl  spmv2
.type  spmv2, @function
.globl  spmv2_rf
.type  spmv2_rf, @function
.globl  spmv3
.type  spmv3, @function
.globl  spmv3_rf
.type  spmv3_rf, @function
.globl  spmv4
.type  spmv4, @function
.globl  spmv4_rf
.type  spmv4_rf, @function
.globl  spmv5
.type  spmv5, @function
.globl  spmv5_rf
.type  spmv5_rf, @function
.globl  spmv6
.type  spmv6, @function
.globl  spmv6_rf
.type  spmv6_rf, @function
.globl  spmv7
.type  spmv7, @function
.globl  spmv7_rf
.type  spmv7_rf, @function
.globl  spmv8
.type  spmv8, @function
.globl  spmv8_rf
.type  spmv8_rf, @function
.globl  spmv9
.type  spmv9, @function
.globl  spmv9_rf
.type  spmv9_rf, @function
.globl  spmv10
.type  spmv10, @function
.globl  spmv10_rf
.type  spmv10_rf, @function
.globl  spmv11
.type  spmv11, @function
.globl  spmv11_rf
.type  spmv11_rf, @function
.globl  spmv12
.type  spmv12, @function
.globl  spmv12_rf
.type  spmv12_rf, @function
.globl  spmv13
.type  spmv13, @function
.globl  spmv13_rf
.type  spmv13_rf, @function
.globl  spmv14
.type  spmv14, @function
.globl  spmv14_rf
.type  spmv14_rf, @function
.globl  spmv15
.type  spmv15, @function
.globl  spmv15_rf
.type  spmv15_rf, @function
.globl  spmv16
.type  spmv16, @function
.globl  spmv16_rf
.type  spmv16_rf, @function
.globl  spmv17
.type  spmv17, @function
.globl  spmv17_rf
.type  spmv17_rf, @function
.globl  spmv18
.type  spmv18, @function
.globl  spmv18_rf
.type  spmv18_rf, @function
.globl  spmv19
.type  spmv19, @function
.globl  spmv19_rf
.type  spmv19_rf, @function
.globl  spmv20
.type  spmv20, @function
.globl  spmv20_rf
.type  spmv20_rf, @function
.globl  spmv21
.type  spmv21, @function
.globl  spmv21_rf
.type  spmv21_rf, @function
.globl  spmv22
.type  spmv22, @function
.globl  spmv22_rf
.type  spmv22_rf, @function
.globl  spmv23
.type  spmv23, @function
.globl  spmv23_rf
.type  spmv23_rf, @function
.globl  spmv24
.type  spmv24, @function
.globl  spmv24_rf
.type  spmv24_rf, @function
.globl  spmv25
.type  spmv25, @function
.globl  spmv25_rf
.type  spmv25_rf, @function
.globl  spmv26
.type  spmv26, @function
.globl  spmv26_rf
.type  spmv26_rf, @function
.globl  spmv27
.type  spmv27, @function
.globl  spmv27_rf
.type  spmv27_rf, @function
.globl  spmv28
.type  spmv28, @function
.globl  spmv28_rf
.type  spmv28_rf, @function
.globl  spmv29
.type  spmv29, @function
.globl  spmv29_rf
.type  spmv29_rf, @function
.globl  spmv30
.type  spmv30, @function
.globl  spmv30_rf
.type  spmv30_rf, @function
.globl  spmv31
.type  spmv31, @function
.globl  spmv31_rf
.type  spmv31_rf, @function
.globl  spmv32
.type  spmv32, @function
.globl  spmv32_rf
.type  spmv32_rf, @function
.globl  spmv33
.type  spmv33, @function
.globl  spmv33_rf
.type  spmv33_rf, @function
.globl  spmv34
.type  spmv34, @function
.globl  spmv34_rf
.type  spmv34_rf, @function
.globl  spmv35
.type  spmv35, @function
.globl  spmv35_rf
.type  spmv35_rf, @function
.globl  spmv36
.type  spmv36, @function
.globl  spmv36_rf
.type  spmv36_rf, @function
.globl  spmv37
.type  spmv37, @function
.globl  spmv37_rf
.type  spmv37_rf, @function
.globl  spmv38
.type  spmv38, @function
.globl  spmv38_rf
.type  spmv38_rf, @function
.globl  spmv39
.type  spmv39, @function
.globl  spmv39_rf
.type  spmv39_rf, @function
.globl  spmv40
.type  spmv40, @function
.globl  spmv40_rf
.type  spmv40_rf, @function
.globl  spmv41
.type  spmv41, @function
.globl  spmv41_rf
.type  spmv41_rf, @function
.globl  spmv42
.type  spmv42, @function
.globl  spmv42_rf
.type  spmv42_rf, @function
.globl  spmv43
.type  spmv43, @function
.globl  spmv43_rf
.type  spmv43_rf, @function
.globl  spmv44
.type  spmv44, @function
.globl  spmv44_rf
.type  spmv44_rf, @function
.globl  spmv45
.type  spmv45, @function
.globl  spmv45_rf
.type  spmv45_rf, @function
.globl  spmv46
.type  spmv46, @function
.globl  spmv46_rf
.type  spmv46_rf, @function
.globl  spmv47
.type  spmv47, @function
.globl  spmv47_rf
.type  spmv47_rf, @function
.globl  spmv48
.type  spmv48, @function
.globl  spmv48_rf
.type  spmv48_rf, @function
.globl  spmv49
.type  spmv49, @function
.globl  spmv49_rf
.type  spmv49_rf, @function
.globl  spmv50
.type  spmv50, @function
.globl  spmv50_rf
.type  spmv50_rf, @function
.globl  spmv51
.type  spmv51, @function
.globl  spmv51_rf
.type  spmv51_rf, @function
.globl  spmv52
.type  spmv52, @function
.globl  spmv52_rf
.type  spmv52_rf, @function
.globl  spmv53
.type  spmv53, @function
.globl  spmv53_rf
.type  spmv53_rf, @function
.globl  spmv54
.type  spmv54, @function
.globl  spmv54_rf
.type  spmv54_rf, @function
.globl  spmv55
.type  spmv55, @function
.globl  spmv55_rf
.type  spmv55_rf, @function
.globl  spmv56
.type  spmv56, @function
.globl  spmv56_rf
.type  spmv56_rf, @function
.globl  spmv57
.type  spmv57, @function
.globl  spmv57_rf
.type  spmv57_rf, @function
.globl  spmv58
.type  spmv58, @function
.globl  spmv58_rf
.type  spmv58_rf, @function
.globl  spmv59
.type  spmv59, @function
.globl  spmv59_rf
.type  spmv59_rf, @function
.globl  spmv60
.type  spmv60, @function
.globl  spmv60_rf
.type  spmv60_rf, @function
.globl  spmv61
.type  spmv61, @function
.globl  spmv61_rf
.type  spmv61_rf, @function
.globl  spmv62
.type  spmv62, @function
.globl  spmv62_rf
.type  spmv62_rf, @function
.globl  spmv63
.type  spmv63, @function
.globl  spmv63_rf
.type  spmv63_rf, @function
.globl  spmv64
.type  spmv64, @function
.globl  spmv64_rf
.type  spmv64_rf, @function
.globl  spmv65
.type  spmv65, @function
.globl  spmv65_rf
.type  spmv65_rf, @function
.globl  spmv66
.type  spmv66, @function
.globl  spmv66_rf
.type  spmv66_rf, @function
.globl  spmv67
.type  spmv67, @function
.globl  spmv67_rf
.type  spmv67_rf, @function
.globl  spmv68
.type  spmv68, @function
.globl  spmv68_rf
.type  spmv68_rf, @function
.globl  spmv69
.type  spmv69, @function
.globl  spmv69_rf
.type  spmv69_rf, @function
.globl  spmv70
.type  spmv70, @function
.globl  spmv70_rf
.type  spmv70_rf, @function
.globl  spmv71
.type  spmv71, @function
.globl  spmv71_rf
.type  spmv71_rf, @function
.globl  spmv72
.type  spmv72, @function
.globl  spmv72_rf
.type  spmv72_rf, @function
.globl  spmv73
.type  spmv73, @function
.globl  spmv73_rf
.type  spmv73_rf, @function
.globl  spmv74
.type  spmv74, @function
.globl  spmv74_rf
.type  spmv74_rf, @function
.globl  spmv75
.type  spmv75, @function
.globl  spmv75_rf
.type  spmv75_rf, @function
.globl  spmv76
.type  spmv76, @function
.globl  spmv76_rf
.type  spmv76_rf, @function
.globl  spmv77
.type  spmv77, @function
.globl  spmv77_rf
.type  spmv77_rf, @function
.globl  spmv78
.type  spmv78, @function
.globl  spmv78_rf
.type  spmv78_rf, @function
.globl  spmv79
.type  spmv79, @function
.globl  spmv79_rf
.type  spmv79_rf, @function
.globl  spmv80
.type  spmv80, @function
.globl  spmv80_rf
.type  spmv80_rf, @function
.globl  spmv81
.type  spmv81, @function
.globl  spmv81_rf
.type  spmv81_rf, @function
.globl  spmv82
.type  spmv82, @function
.globl  spmv82_rf
.type  spmv82_rf, @function
.globl  spmv83
.type  spmv83, @function
.globl  spmv83_rf
.type  spmv83_rf, @function
.globl  spmv84
.type  spmv84, @function
.globl  spmv84_rf
.type  spmv84_rf, @function
.globl  spmv85
.type  spmv85, @function
.globl  spmv85_rf
.type  spmv85_rf, @function
.globl  spmv86
.type  spmv86, @function
.globl  spmv86_rf
.type  spmv86_rf, @function
.globl  spmv87
.type  spmv87, @function
.globl  spmv87_rf
.type  spmv87_rf, @function
.globl  spmv88
.type  spmv88, @function
.globl  spmv88_rf
.type  spmv88_rf, @function
.globl  spmv89
.type  spmv89, @function
.globl  spmv89_rf
.type  spmv89_rf, @function
.globl  spmv90
.type  spmv90, @function
.globl  spmv90_rf
.type  spmv90_rf, @function
.globl  spmv91
.type  spmv91, @function
.globl  spmv91_rf
.type  spmv91_rf, @function
.globl  spmv92
.type  spmv92, @function
.globl  spmv92_rf
.type  spmv92_rf, @function
.globl  spmv93
.type  spmv93, @function
.globl  spmv93_rf
.type  spmv93_rf, @function
.globl  spmv94
.type  spmv94, @function
.globl  spmv94_rf
.type  spmv94_rf, @function
.globl  spmv95
.type  spmv95, @function
.globl  spmv95_rf
.type  spmv95_rf, @function
.globl  spmv96
.type  spmv96, @function
.globl  spmv96_rf
.type  spmv96_rf, @function
.globl  spmv97
.type  spmv97, @function
.globl  spmv97_rf
.type  spmv97_rf, @function
.globl  spmv98
.type  spmv98, @function
.globl  spmv98_rf
.type  spmv98_rf, @function
.globl  spmv99
.type  spmv99, @function
.globl  spmv99_rf
.type  spmv99_rf, @function
.globl  spmv100
.type  spmv100, @function
.globl  spmv100_rf
.type  spmv100_rf, @function
.globl  spmv101
.type  spmv101, @function
.globl  spmv101_rf
.type  spmv101_rf, @function
.globl  spmv102
.type  spmv102, @function
.globl  spmv102_rf
.type  spmv102_rf, @function
.globl  spmv103
.type  spmv103, @function
.globl  spmv103_rf
.type  spmv103_rf, @function
.globl  spmv104
.type  spmv104, @function
.globl  spmv104_rf
.type  spmv104_rf, @function
.globl  spmv105
.type  spmv105, @function
.globl  spmv105_rf
.type  spmv105_rf, @function
.globl  spmv106
.type  spmv106, @function
.globl  spmv106_rf
.type  spmv106_rf, @function
.globl  spmv107
.type  spmv107, @function
.globl  spmv107_rf
.type  spmv107_rf, @function
.globl  spmv108
.type  spmv108, @function
.globl  spmv108_rf
.type  spmv108_rf, @function
.globl  spmv109
.type  spmv109, @function
.globl  spmv109_rf
.type  spmv109_rf, @function
.globl  spmv110
.type  spmv110, @function
.globl  spmv110_rf
.type  spmv110_rf, @function
.globl  spmv111
.type  spmv111, @function
.globl  spmv111_rf
.type  spmv111_rf, @function
.globl  spmv112
.type  spmv112, @function
.globl  spmv112_rf
.type  spmv112_rf, @function
.globl  spmv113
.type  spmv113, @function
.globl  spmv113_rf
.type  spmv113_rf, @function
.globl  spmv114
.type  spmv114, @function
.globl  spmv114_rf
.type  spmv114_rf, @function
.globl  spmv115
.type  spmv115, @function
.globl  spmv115_rf
.type  spmv115_rf, @function
.globl  spmv116
.type  spmv116, @function
.globl  spmv116_rf
.type  spmv116_rf, @function
.globl  spmv117
.type  spmv117, @function
.globl  spmv117_rf
.type  spmv117_rf, @function
.globl  spmv118
.type  spmv118, @function
.globl  spmv118_rf
.type  spmv118_rf, @function
.globl  spmv119
.type  spmv119, @function
.globl  spmv119_rf
.type  spmv119_rf, @function
.globl  spmv120
.type  spmv120, @function
.globl  spmv120_rf
.type  spmv120_rf, @function
.globl  spmv121
.type  spmv121, @function
.globl  spmv121_rf
.type  spmv121_rf, @function
.globl  spmv122
.type  spmv122, @function
.globl  spmv122_rf
.type  spmv122_rf, @function
.globl  spmv123
.type  spmv123, @function
.globl  spmv123_rf
.type  spmv123_rf, @function
.globl  spmv124
.type  spmv124, @function
.globl  spmv124_rf
.type  spmv124_rf, @function
.globl  spmv125
.type  spmv125, @function
.globl  spmv125_rf
.type  spmv125_rf, @function
.globl  spmv126
.type  spmv126, @function
.globl  spmv126_rf
.type  spmv126_rf, @function
.globl  spmv127
.type  spmv127, @function
.globl  spmv127_rf
.type  spmv127_rf, @function
.globl  spmv128
.type  spmv128, @function
.globl  spmv128_rf
.type  spmv128_rf, @function
.globl  spmv129
.type  spmv129, @function
.globl  spmv129_rf
.type  spmv129_rf, @function
.globl  spmv130
.type  spmv130, @function
.globl  spmv130_rf
.type  spmv130_rf, @function
.globl  spmv131
.type  spmv131, @function
.globl  spmv131_rf
.type  spmv131_rf, @function
.globl  spmv132
.type  spmv132, @function
.globl  spmv132_rf
.type  spmv132_rf, @function
.globl  spmv133
.type  spmv133, @function
.globl  spmv133_rf
.type  spmv133_rf, @function
.globl  spmv134
.type  spmv134, @function
.globl  spmv134_rf
.type  spmv134_rf, @function
.globl  spmv135
.type  spmv135, @function
.globl  spmv135_rf
.type  spmv135_rf, @function
.globl  spmv136
.type  spmv136, @function
.globl  spmv136_rf
.type  spmv136_rf, @function
.globl  spmv137
.type  spmv137, @function
.globl  spmv137_rf
.type  spmv137_rf, @function
.globl  spmv138
.type  spmv138, @function
.globl  spmv138_rf
.type  spmv138_rf, @function
.globl  spmv139
.type  spmv139, @function
.globl  spmv139_rf
.type  spmv139_rf, @function
.globl  spmv140
.type  spmv140, @function
.globl  spmv140_rf
.type  spmv140_rf, @function
.globl  spmv141
.type  spmv141, @function
.globl  spmv141_rf
.type  spmv141_rf, @function
.globl  spmv142
.type  spmv142, @function
.globl  spmv142_rf
.type  spmv142_rf, @function
.globl  spmv143
.type  spmv143, @function
.globl  spmv143_rf
.type  spmv143_rf, @function
.globl  spmv144
.type  spmv144, @function
.globl  spmv144_rf
.type  spmv144_rf, @function
.globl  spmv145
.type  spmv145, @function
.globl  spmv145_rf
.type  spmv145_rf, @function
.globl  spmv146
.type  spmv146, @function
.globl  spmv146_rf
.type  spmv146_rf, @function
.globl  spmv147
.type  spmv147, @function
.globl  spmv147_rf
.type  spmv147_rf, @function
.globl  spmv148
.type  spmv148, @function
.globl  spmv148_rf
.type  spmv148_rf, @function
.globl  spmv149
.type  spmv149, @function
.globl  spmv149_rf
.type  spmv149_rf, @function
.globl  spmv150
.type  spmv150, @function
.globl  spmv150_rf
.type  spmv150_rf, @function
.globl  spmv151
.type  spmv151, @function
.globl  spmv151_rf
.type  spmv151_rf, @function
.globl  spmv152
.type  spmv152, @function
.globl  spmv152_rf
.type  spmv152_rf, @function
.globl  spmv153
.type  spmv153, @function
.globl  spmv153_rf
.type  spmv153_rf, @function
.globl  spmv154
.type  spmv154, @function
.globl  spmv154_rf
.type  spmv154_rf, @function
.globl  spmv155
.type  spmv155, @function
.globl  spmv155_rf
.type  spmv155_rf, @function
.globl  spmv156
.type  spmv156, @function
.globl  spmv156_rf
.type  spmv156_rf, @function
.globl  spmv157
.type  spmv157, @function
.globl  spmv157_rf
.type  spmv157_rf, @function
.globl  spmv158
.type  spmv158, @function
.globl  spmv158_rf
.type  spmv158_rf, @function
.globl  spmv159
.type  spmv159, @function
.globl  spmv159_rf
.type  spmv159_rf, @function
.globl  spmv160
.type  spmv160, @function
.globl  spmv160_rf
.type  spmv160_rf, @function
.globl  spmv161
.type  spmv161, @function
.globl  spmv161_rf
.type  spmv161_rf, @function
.globl  spmv162
.type  spmv162, @function
.globl  spmv162_rf
.type  spmv162_rf, @function
.globl  spmv163
.type  spmv163, @function
.globl  spmv163_rf
.type  spmv163_rf, @function
.globl  spmv164
.type  spmv164, @function
.globl  spmv164_rf
.type  spmv164_rf, @function
.globl  spmv165
.type  spmv165, @function
.globl  spmv165_rf
.type  spmv165_rf, @function
.globl  spmv166
.type  spmv166, @function
.globl  spmv166_rf
.type  spmv166_rf, @function
.globl  spmv167
.type  spmv167, @function
.globl  spmv167_rf
.type  spmv167_rf, @function
.globl  spmv168
.type  spmv168, @function
.globl  spmv168_rf
.type  spmv168_rf, @function
.globl  spmv169
.type  spmv169, @function
.globl  spmv169_rf
.type  spmv169_rf, @function
.globl  spmv170
.type  spmv170, @function
.globl  spmv170_rf
.type  spmv170_rf, @function
.globl  spmv171
.type  spmv171, @function
.globl  spmv171_rf
.type  spmv171_rf, @function
.globl  spmv172
.type  spmv172, @function
.globl  spmv172_rf
.type  spmv172_rf, @function
.globl  spmv173
.type  spmv173, @function
.globl  spmv173_rf
.type  spmv173_rf, @function
.globl  spmv174
.type  spmv174, @function
.globl  spmv174_rf
.type  spmv174_rf, @function
.globl  spmv175
.type  spmv175, @function
.globl  spmv175_rf
.type  spmv175_rf, @function
.globl  spmv176
.type  spmv176, @function
.globl  spmv176_rf
.type  spmv176_rf, @function
.globl  spmv177
.type  spmv177, @function
.globl  spmv177_rf
.type  spmv177_rf, @function
.globl  spmv178
.type  spmv178, @function
.globl  spmv178_rf
.type  spmv178_rf, @function
.globl  spmv179
.type  spmv179, @function
.globl  spmv179_rf
.type  spmv179_rf, @function
.globl  spmv180
.type  spmv180, @function
.globl  spmv180_rf
.type  spmv180_rf, @function
.globl  spmv181
.type  spmv181, @function
.globl  spmv181_rf
.type  spmv181_rf, @function
.globl  spmv182
.type  spmv182, @function
.globl  spmv182_rf
.type  spmv182_rf, @function
.globl  spmv183
.type  spmv183, @function
.globl  spmv183_rf
.type  spmv183_rf, @function
.globl  spmv184
.type  spmv184, @function
.globl  spmv184_rf
.type  spmv184_rf, @function
.globl  spmv185
.type  spmv185, @function
.globl  spmv185_rf
.type  spmv185_rf, @function
.globl  spmv186
.type  spmv186, @function
.globl  spmv186_rf
.type  spmv186_rf, @function
.globl  spmv187
.type  spmv187, @function
.globl  spmv187_rf
.type  spmv187_rf, @function
.globl  spmv188
.type  spmv188, @function
.globl  spmv188_rf
.type  spmv188_rf, @function
.globl  spmv189
.type  spmv189, @function
.globl  spmv189_rf
.type  spmv189_rf, @function
.globl  spmv190
.type  spmv190, @function
.globl  spmv190_rf
.type  spmv190_rf, @function
.globl  spmv191
.type  spmv191, @function
.globl  spmv191_rf
.type  spmv191_rf, @function
.globl  spmv192
.type  spmv192, @function
.globl  spmv192_rf
.type  spmv192_rf, @function
.globl  spmv193
.type  spmv193, @function
.globl  spmv193_rf
.type  spmv193_rf, @function
.globl  spmv194
.type  spmv194, @function
.globl  spmv194_rf
.type  spmv194_rf, @function
.globl  spmv195
.type  spmv195, @function
.globl  spmv195_rf
.type  spmv195_rf, @function
.globl  spmv196
.type  spmv196, @function
.globl  spmv196_rf
.type  spmv196_rf, @function
.globl  spmv197
.type  spmv197, @function
.globl  spmv197_rf
.type  spmv197_rf, @function
.globl  spmv198
.type  spmv198, @function
.globl  spmv198_rf
.type  spmv198_rf, @function
.globl  spmv199
.type  spmv199, @function
.globl  spmv199_rf
.type  spmv199_rf, @function
.globl  spmv200
.type  spmv200, @function
.globl  spmv200_rf
.type  spmv200_rf, @function
.globl  spmv201
.type  spmv201, @function
.globl  spmv201_rf
.type  spmv201_rf, @function
.globl  spmv202
.type  spmv202, @function
.globl  spmv202_rf
.type  spmv202_rf, @function
.globl  spmv203
.type  spmv203, @function
.globl  spmv203_rf
.type  spmv203_rf, @function
.globl  spmv204
.type  spmv204, @function
.globl  spmv204_rf
.type  spmv204_rf, @function
.globl  spmv205
.type  spmv205, @function
.globl  spmv205_rf
.type  spmv205_rf, @function
.globl  spmv206
.type  spmv206, @function
.globl  spmv206_rf
.type  spmv206_rf, @function
.globl  spmv207
.type  spmv207, @function
.globl  spmv207_rf
.type  spmv207_rf, @function
.globl  spmv208
.type  spmv208, @function
.globl  spmv208_rf
.type  spmv208_rf, @function
.globl  spmv209
.type  spmv209, @function
.globl  spmv209_rf
.type  spmv209_rf, @function
.globl  spmv210
.type  spmv210, @function
.globl  spmv210_rf
.type  spmv210_rf, @function
.globl  spmv211
.type  spmv211, @function
.globl  spmv211_rf
.type  spmv211_rf, @function
.globl  spmv212
.type  spmv212, @function
.globl  spmv212_rf
.type  spmv212_rf, @function
.globl  spmv213
.type  spmv213, @function
.globl  spmv213_rf
.type  spmv213_rf, @function
.globl  spmv214
.type  spmv214, @function
.globl  spmv214_rf
.type  spmv214_rf, @function
.globl  spmv215
.type  spmv215, @function
.globl  spmv215_rf
.type  spmv215_rf, @function
.globl  spmv216
.type  spmv216, @function
.globl  spmv216_rf
.type  spmv216_rf, @function
.globl  spmv217
.type  spmv217, @function
.globl  spmv217_rf
.type  spmv217_rf, @function
.globl  spmv218
.type  spmv218, @function
.globl  spmv218_rf
.type  spmv218_rf, @function
.globl  spmv219
.type  spmv219, @function
.globl  spmv219_rf
.type  spmv219_rf, @function
.globl  spmv220
.type  spmv220, @function
.globl  spmv220_rf
.type  spmv220_rf, @function
.globl  spmv221
.type  spmv221, @function
.globl  spmv221_rf
.type  spmv221_rf, @function
.globl  spmv222
.type  spmv222, @function
.globl  spmv222_rf
.type  spmv222_rf, @function
.globl  spmv223
.type  spmv223, @function
.globl  spmv223_rf
.type  spmv223_rf, @function
.globl  spmv224
.type  spmv224, @function
.globl  spmv224_rf
.type  spmv224_rf, @function
.globl  spmv225
.type  spmv225, @function
.globl  spmv225_rf
.type  spmv225_rf, @function
.globl  spmv226
.type  spmv226, @function
.globl  spmv226_rf
.type  spmv226_rf, @function
.globl  spmv227
.type  spmv227, @function
.globl  spmv227_rf
.type  spmv227_rf, @function
.globl  spmv228
.type  spmv228, @function
.globl  spmv228_rf
.type  spmv228_rf, @function
.globl  spmv229
.type  spmv229, @function
.globl  spmv229_rf
.type  spmv229_rf, @function
.globl  spmv230
.type  spmv230, @function
.globl  spmv230_rf
.type  spmv230_rf, @function
.globl  spmv231
.type  spmv231, @function
.globl  spmv231_rf
.type  spmv231_rf, @function
.globl  spmv232
.type  spmv232, @function
.globl  spmv232_rf
.type  spmv232_rf, @function
.globl  spmv233
.type  spmv233, @function
.globl  spmv233_rf
.type  spmv233_rf, @function
.globl  spmv234
.type  spmv234, @function
.globl  spmv234_rf
.type  spmv234_rf, @function
.globl  spmv235
.type  spmv235, @function
.globl  spmv235_rf
.type  spmv235_rf, @function
.globl  spmv236
.type  spmv236, @function
.globl  spmv236_rf
.type  spmv236_rf, @function
.globl  spmv237
.type  spmv237, @function
.globl  spmv237_rf
.type  spmv237_rf, @function
.globl  spmv238
.type  spmv238, @function
.globl  spmv238_rf
.type  spmv238_rf, @function
.globl  spmv239
.type  spmv239, @function
.globl  spmv239_rf
.type  spmv239_rf, @function
.globl  spmv240
.type  spmv240, @function
.globl  spmv240_rf
.type  spmv240_rf, @function
.globl  spmv241
.type  spmv241, @function
.globl  spmv241_rf
.type  spmv241_rf, @function
.globl  spmv242
.type  spmv242, @function
.globl  spmv242_rf
.type  spmv242_rf, @function
.globl  spmv243
.type  spmv243, @function
.globl  spmv243_rf
.type  spmv243_rf, @function
.globl  spmv244
.type  spmv244, @function
.globl  spmv244_rf
.type  spmv244_rf, @function
.globl  spmv245
.type  spmv245, @function
.globl  spmv245_rf
.type  spmv245_rf, @function
.globl  spmv246
.type  spmv246, @function
.globl  spmv246_rf
.type  spmv246_rf, @function
.globl  spmv247
.type  spmv247, @function
.globl  spmv247_rf
.type  spmv247_rf, @function
.globl  spmv248
.type  spmv248, @function
.globl  spmv248_rf
.type  spmv248_rf, @function
.globl  spmv249
.type  spmv249, @function
.globl  spmv249_rf
.type  spmv249_rf, @function
.globl  spmv250
.type  spmv250, @function
.globl  spmv250_rf
.type  spmv250_rf, @function
.globl  spmv251
.type  spmv251, @function
.globl  spmv251_rf
.type  spmv251_rf, @function
.globl  spmv252
.type  spmv252, @function
.globl  spmv252_rf
.type  spmv252_rf, @function
.globl  spmv253
.type  spmv253, @function
.globl  spmv253_rf
.type  spmv253_rf, @function
.globl  spmv254
.type  spmv254, @function
.globl  spmv254_rf
.type  spmv254_rf, @function
.globl  spmv255
.type  spmv255, @function
.globl  spmv255_rf
.type  spmv255_rf, @function
.globl  spmv256
.type  spmv256, @function
.globl  spmv256_rf
.type  spmv256_rf, @function
.globl  spmv257
.type  spmv257, @function
.globl  spmv257_rf
.type  spmv257_rf, @function
.globl  spmv258
.type  spmv258, @function
.globl  spmv258_rf
.type  spmv258_rf, @function
.globl  spmv259
.type  spmv259, @function
.globl  spmv259_rf
.type  spmv259_rf, @function
.globl  spmv260
.type  spmv260, @function
.globl  spmv260_rf
.type  spmv260_rf, @function
.globl  spmv261
.type  spmv261, @function
.globl  spmv261_rf
.type  spmv261_rf, @function
.globl  spmv262
.type  spmv262, @function
.globl  spmv262_rf
.type  spmv262_rf, @function
.globl  spmv263
.type  spmv263, @function
.globl  spmv263_rf
.type  spmv263_rf, @function
.globl  spmv264
.type  spmv264, @function
.globl  spmv264_rf
.type  spmv264_rf, @function
.globl  spmv265
.type  spmv265, @function
.globl  spmv265_rf
.type  spmv265_rf, @function
.globl  spmv266
.type  spmv266, @function
.globl  spmv266_rf
.type  spmv266_rf, @function
.globl  spmv267
.type  spmv267, @function
.globl  spmv267_rf
.type  spmv267_rf, @function
.globl  spmv268
.type  spmv268, @function
.globl  spmv268_rf
.type  spmv268_rf, @function
.globl  spmv269
.type  spmv269, @function
.globl  spmv269_rf
.type  spmv269_rf, @function
.globl  spmv270
.type  spmv270, @function
.globl  spmv270_rf
.type  spmv270_rf, @function
.globl  spmv271
.type  spmv271, @function
.globl  spmv271_rf
.type  spmv271_rf, @function
.globl  spmv272
.type  spmv272, @function
.globl  spmv272_rf
.type  spmv272_rf, @function
.globl  spmv273
.type  spmv273, @function
.globl  spmv273_rf
.type  spmv273_rf, @function
.globl  spmv274
.type  spmv274, @function
.globl  spmv274_rf
.type  spmv274_rf, @function
.globl  spmv275
.type  spmv275, @function
.globl  spmv275_rf
.type  spmv275_rf, @function
.globl  spmv276
.type  spmv276, @function
.globl  spmv276_rf
.type  spmv276_rf, @function
.globl  spmv277
.type  spmv277, @function
.globl  spmv277_rf
.type  spmv277_rf, @function
.globl  spmv278
.type  spmv278, @function
.globl  spmv278_rf
.type  spmv278_rf, @function
.globl  spmv279
.type  spmv279, @function
.globl  spmv279_rf
.type  spmv279_rf, @function
.globl  spmv280
.type  spmv280, @function
.globl  spmv280_rf
.type  spmv280_rf, @function
.globl  spmv281
.type  spmv281, @function
.globl  spmv281_rf
.type  spmv281_rf, @function
.globl  spmv282
.type  spmv282, @function
.globl  spmv282_rf
.type  spmv282_rf, @function
.globl  spmv283
.type  spmv283, @function
.globl  spmv283_rf
.type  spmv283_rf, @function
.globl  spmv284
.type  spmv284, @function
.globl  spmv284_rf
.type  spmv284_rf, @function
.globl  spmv285
.type  spmv285, @function
.globl  spmv285_rf
.type  spmv285_rf, @function
.globl  spmv286
.type  spmv286, @function
.globl  spmv286_rf
.type  spmv286_rf, @function
.globl  spmv287
.type  spmv287, @function
.globl  spmv287_rf
.type  spmv287_rf, @function
.globl  spmv288
.type  spmv288, @function
.globl  spmv288_rf
.type  spmv288_rf, @function
.globl  spmv289
.type  spmv289, @function
.globl  spmv289_rf
.type  spmv289_rf, @function
.globl  spmv290
.type  spmv290, @function
.globl  spmv290_rf
.type  spmv290_rf, @function
.globl  spmv291
.type  spmv291, @function
.globl  spmv291_rf
.type  spmv291_rf, @function
.globl  spmv292
.type  spmv292, @function
.globl  spmv292_rf
.type  spmv292_rf, @function
.globl  spmv293
.type  spmv293, @function
.globl  spmv293_rf
.type  spmv293_rf, @function
.globl  spmv294
.type  spmv294, @function
.globl  spmv294_rf
.type  spmv294_rf, @function
.globl  spmv295
.type  spmv295, @function
.globl  spmv295_rf
.type  spmv295_rf, @function
.globl  spmv296
.type  spmv296, @function
.globl  spmv296_rf
.type  spmv296_rf, @function
.globl  spmv297
.type  spmv297, @function
.globl  spmv297_rf
.type  spmv297_rf, @function
.globl  spmv298
.type  spmv298, @function
.globl  spmv298_rf
.type  spmv298_rf, @function
.globl  spmv299
.type  spmv299, @function
.globl  spmv299_rf
.type  spmv299_rf, @function
.globl  spmv300
.type  spmv300, @function
.globl  spmv300_rf
.type  spmv300_rf, @function
.globl  spmv301
.type  spmv301, @function
.globl  spmv301_rf
.type  spmv301_rf, @function
.globl  spmv302
.type  spmv302, @function
.globl  spmv302_rf
.type  spmv302_rf, @function
.globl  spmv303
.type  spmv303, @function
.globl  spmv303_rf
.type  spmv303_rf, @function
.globl  spmv304
.type  spmv304, @function
.globl  spmv304_rf
.type  spmv304_rf, @function
.globl  spmv305
.type  spmv305, @function
.globl  spmv305_rf
.type  spmv305_rf, @function
.globl  spmv306
.type  spmv306, @function
.globl  spmv306_rf
.type  spmv306_rf, @function
.globl  spmv307
.type  spmv307, @function
.globl  spmv307_rf
.type  spmv307_rf, @function
.globl  spmv308
.type  spmv308, @function
.globl  spmv308_rf
.type  spmv308_rf, @function
.globl  spmv309
.type  spmv309, @function
.globl  spmv309_rf
.type  spmv309_rf, @function
.globl  spmv310
.type  spmv310, @function
.globl  spmv310_rf
.type  spmv310_rf, @function
.globl  spmv311
.type  spmv311, @function
.globl  spmv311_rf
.type  spmv311_rf, @function
.globl  spmv312
.type  spmv312, @function
.globl  spmv312_rf
.type  spmv312_rf, @function
.globl  spmv313
.type  spmv313, @function
.globl  spmv313_rf
.type  spmv313_rf, @function
.globl  spmv314
.type  spmv314, @function
.globl  spmv314_rf
.type  spmv314_rf, @function
.globl  spmv315
.type  spmv315, @function
.globl  spmv315_rf
.type  spmv315_rf, @function
.globl  spmv316
.type  spmv316, @function
.globl  spmv316_rf
.type  spmv316_rf, @function
.globl  spmv317
.type  spmv317, @function
.globl  spmv317_rf
.type  spmv317_rf, @function
.globl  spmv318
.type  spmv318, @function
.globl  spmv318_rf
.type  spmv318_rf, @function
.globl  spmv319
.type  spmv319, @function
.globl  spmv319_rf
.type  spmv319_rf, @function
.globl  spmv320
.type  spmv320, @function
.globl  spmv320_rf
.type  spmv320_rf, @function
.globl  spmv321
.type  spmv321, @function
.globl  spmv321_rf
.type  spmv321_rf, @function
.globl  spmv322
.type  spmv322, @function
.globl  spmv322_rf
.type  spmv322_rf, @function
.globl  spmv323
.type  spmv323, @function
.globl  spmv323_rf
.type  spmv323_rf, @function
.globl  spmv324
.type  spmv324, @function
.globl  spmv324_rf
.type  spmv324_rf, @function
.globl  spmv325
.type  spmv325, @function
.globl  spmv325_rf
.type  spmv325_rf, @function
.globl  spmv326
.type  spmv326, @function
.globl  spmv326_rf
.type  spmv326_rf, @function
.globl  spmv327
.type  spmv327, @function
.globl  spmv327_rf
.type  spmv327_rf, @function
.globl  spmv328
.type  spmv328, @function
.globl  spmv328_rf
.type  spmv328_rf, @function
.globl  spmv329
.type  spmv329, @function
.globl  spmv329_rf
.type  spmv329_rf, @function
.globl  spmv330
.type  spmv330, @function
.globl  spmv330_rf
.type  spmv330_rf, @function
.globl  spmv331
.type  spmv331, @function
.globl  spmv331_rf
.type  spmv331_rf, @function
.globl  spmv332
.type  spmv332, @function
.globl  spmv332_rf
.type  spmv332_rf, @function
.globl  spmv333
.type  spmv333, @function
.globl  spmv333_rf
.type  spmv333_rf, @function
.globl  spmv334
.type  spmv334, @function
.globl  spmv334_rf
.type  spmv334_rf, @function
.globl  spmv335
.type  spmv335, @function
.globl  spmv335_rf
.type  spmv335_rf, @function
.globl  spmv336
.type  spmv336, @function
.globl  spmv336_rf
.type  spmv336_rf, @function
.globl  spmv337
.type  spmv337, @function
.globl  spmv337_rf
.type  spmv337_rf, @function
.globl  spmv338
.type  spmv338, @function
.globl  spmv338_rf
.type  spmv338_rf, @function
.globl  spmv339
.type  spmv339, @function
.globl  spmv339_rf
.type  spmv339_rf, @function
.globl  spmv340
.type  spmv340, @function
.globl  spmv340_rf
.type  spmv340_rf, @function
.globl  spmv341
.type  spmv341, @function
.globl  spmv341_rf
.type  spmv341_rf, @function
.globl  spmv342
.type  spmv342, @function
.globl  spmv342_rf
.type  spmv342_rf, @function
.globl  spmv343
.type  spmv343, @function
.globl  spmv343_rf
.type  spmv343_rf, @function
.globl  spmv344
.type  spmv344, @function
.globl  spmv344_rf
.type  spmv344_rf, @function
.globl  spmv345
.type  spmv345, @function
.globl  spmv345_rf
.type  spmv345_rf, @function
.globl  spmv346
.type  spmv346, @function
.globl  spmv346_rf
.type  spmv346_rf, @function
.globl  spmv347
.type  spmv347, @function
.globl  spmv347_rf
.type  spmv347_rf, @function
.globl  spmv348
.type  spmv348, @function
.globl  spmv348_rf
.type  spmv348_rf, @function
.globl  spmv349
.type  spmv349, @function
.globl  spmv349_rf
.type  spmv349_rf, @function
.globl  spmv350
.type  spmv350, @function
.globl  spmv350_rf
.type  spmv350_rf, @function
.globl  spmv351
.type  spmv351, @function
.globl  spmv351_rf
.type  spmv351_rf, @function
.globl  spmv352
.type  spmv352, @function
.globl  spmv352_rf
.type  spmv352_rf, @function
.globl  spmv353
.type  spmv353, @function
.globl  spmv353_rf
.type  spmv353_rf, @function
.globl  spmv354
.type  spmv354, @function
.globl  spmv354_rf
.type  spmv354_rf, @function
.globl  spmv355
.type  spmv355, @function
.globl  spmv355_rf
.type  spmv355_rf, @function
.globl  spmv356
.type  spmv356, @function
.globl  spmv356_rf
.type  spmv356_rf, @function
.globl  spmv357
.type  spmv357, @function
.globl  spmv357_rf
.type  spmv357_rf, @function
.globl  spmv358
.type  spmv358, @function
.globl  spmv358_rf
.type  spmv358_rf, @function
.globl  spmv359
.type  spmv359, @function
.globl  spmv359_rf
.type  spmv359_rf, @function
.globl  spmv360
.type  spmv360, @function
.globl  spmv360_rf
.type  spmv360_rf, @function
.globl  spmv361
.type  spmv361, @function
.globl  spmv361_rf
.type  spmv361_rf, @function
.globl  spmv362
.type  spmv362, @function
.globl  spmv362_rf
.type  spmv362_rf, @function
.globl  spmv363
.type  spmv363, @function
.globl  spmv363_rf
.type  spmv363_rf, @function
.globl  spmv364
.type  spmv364, @function
.globl  spmv364_rf
.type  spmv364_rf, @function
.globl  spmv365
.type  spmv365, @function
.globl  spmv365_rf
.type  spmv365_rf, @function
.globl  spmv366
.type  spmv366, @function
.globl  spmv366_rf
.type  spmv366_rf, @function
.globl  spmv367
.type  spmv367, @function
.globl  spmv367_rf
.type  spmv367_rf, @function
.globl  spmv368
.type  spmv368, @function
.globl  spmv368_rf
.type  spmv368_rf, @function
.globl  spmv369
.type  spmv369, @function
.globl  spmv369_rf
.type  spmv369_rf, @function
.globl  spmv370
.type  spmv370, @function
.globl  spmv370_rf
.type  spmv370_rf, @function
.globl  spmv371
.type  spmv371, @function
.globl  spmv371_rf
.type  spmv371_rf, @function
.globl  spmv372
.type  spmv372, @function
.globl  spmv372_rf
.type  spmv372_rf, @function
.globl  spmv373
.type  spmv373, @function
.globl  spmv373_rf
.type  spmv373_rf, @function
.globl  spmv374
.type  spmv374, @function
.globl  spmv374_rf
.type  spmv374_rf, @function
.globl  spmv375
.type  spmv375, @function
.globl  spmv375_rf
.type  spmv375_rf, @function
.globl  spmv376
.type  spmv376, @function
.globl  spmv376_rf
.type  spmv376_rf, @function
.globl  spmv377
.type  spmv377, @function
.globl  spmv377_rf
.type  spmv377_rf, @function
.globl  spmv378
.type  spmv378, @function
.globl  spmv378_rf
.type  spmv378_rf, @function
.globl  spmv379
.type  spmv379, @function
.globl  spmv379_rf
.type  spmv379_rf, @function
.globl  spmv380
.type  spmv380, @function
.globl  spmv380_rf
.type  spmv380_rf, @function
.globl  spmv381
.type  spmv381, @function
.globl  spmv381_rf
.type  spmv381_rf, @function
.globl  spmv382
.type  spmv382, @function
.globl  spmv382_rf
.type  spmv382_rf, @function
.globl  spmv383
.type  spmv383, @function
.globl  spmv383_rf
.type  spmv383_rf, @function
.globl  spmv384
.type  spmv384, @function
.globl  spmv384_rf
.type  spmv384_rf, @function
.globl  spmv385
.type  spmv385, @function
.globl  spmv385_rf
.type  spmv385_rf, @function
.globl  spmv386
.type  spmv386, @function
.globl  spmv386_rf
.type  spmv386_rf, @function
.globl  spmv387
.type  spmv387, @function
.globl  spmv387_rf
.type  spmv387_rf, @function
.globl  spmv388
.type  spmv388, @function
.globl  spmv388_rf
.type  spmv388_rf, @function
.globl  spmv389
.type  spmv389, @function
.globl  spmv389_rf
.type  spmv389_rf, @function
.globl  spmv390
.type  spmv390, @function
.globl  spmv390_rf
.type  spmv390_rf, @function
.globl  spmv391
.type  spmv391, @function
.globl  spmv391_rf
.type  spmv391_rf, @function
.globl  spmv392
.type  spmv392, @function
.globl  spmv392_rf
.type  spmv392_rf, @function
.globl  spmv393
.type  spmv393, @function
.globl  spmv393_rf
.type  spmv393_rf, @function
.globl  spmv394
.type  spmv394, @function
.globl  spmv394_rf
.type  spmv394_rf, @function
.globl  spmv395
.type  spmv395, @function
.globl  spmv395_rf
.type  spmv395_rf, @function
.globl  spmv396
.type  spmv396, @function
.globl  spmv396_rf
.type  spmv396_rf, @function
.globl  spmv397
.type  spmv397, @function
.globl  spmv397_rf
.type  spmv397_rf, @function
.globl  spmv398
.type  spmv398, @function
.globl  spmv398_rf
.type  spmv398_rf, @function
.globl  spmv399
.type  spmv399, @function
.globl  spmv399_rf
.type  spmv399_rf, @function
.globl  spmv400
.type  spmv400, @function
.globl  spmv400_rf
.type  spmv400_rf, @function
.globl  spmv401
.type  spmv401, @function
.globl  spmv401_rf
.type  spmv401_rf, @function
.globl  spmv402
.type  spmv402, @function
.globl  spmv402_rf
.type  spmv402_rf, @function
.globl  spmv403
.type  spmv403, @function
.globl  spmv403_rf
.type  spmv403_rf, @function
.globl  spmv404
.type  spmv404, @function
.globl  spmv404_rf
.type  spmv404_rf, @function
.globl  spmv405
.type  spmv405, @function
.globl  spmv405_rf
.type  spmv405_rf, @function
.globl  spmv406
.type  spmv406, @function
.globl  spmv406_rf
.type  spmv406_rf, @function
.globl  spmv407
.type  spmv407, @function
.globl  spmv407_rf
.type  spmv407_rf, @function
.globl  spmv408
.type  spmv408, @function
.globl  spmv408_rf
.type  spmv408_rf, @function
.globl  spmv409
.type  spmv409, @function
.globl  spmv409_rf
.type  spmv409_rf, @function
.globl  spmv410
.type  spmv410, @function
.globl  spmv410_rf
.type  spmv410_rf, @function
.globl  spmv411
.type  spmv411, @function
.globl  spmv411_rf
.type  spmv411_rf, @function
.globl  spmv412
.type  spmv412, @function
.globl  spmv412_rf
.type  spmv412_rf, @function
.globl  spmv413
.type  spmv413, @function
.globl  spmv413_rf
.type  spmv413_rf, @function
.globl  spmv414
.type  spmv414, @function
.globl  spmv414_rf
.type  spmv414_rf, @function
.globl  spmv415
.type  spmv415, @function
.globl  spmv415_rf
.type  spmv415_rf, @function
.globl  spmv416
.type  spmv416, @function
.globl  spmv416_rf
.type  spmv416_rf, @function
.globl  spmv417
.type  spmv417, @function
.globl  spmv417_rf
.type  spmv417_rf, @function
spmv0:	nop
spmv1:	nop
spmv2:	.globl	_Z14spmv_interruptPfPmS0_S_S_mm
spmv3:	.p2align	4, 0x90
spmv4:	.type	_Z14spmv_interruptPfPmS0_S_S_mm,@function
_Z14spmv_interruptPfPmS0_S_S_mm:
spmv5:	.cfi_startproc
spmv6:	pushq	%rbp
spmv7:	.cfi_def_cfa_offset 16
spmv8:	pushq	%r15
spmv9:	.cfi_def_cfa_offset 24
spmv10:	pushq	%r14
spmv11:	.cfi_def_cfa_offset 32
spmv12:	pushq	%r13
spmv13:	.cfi_def_cfa_offset 40
spmv14:	pushq	%r12
spmv15:	.cfi_def_cfa_offset 48
spmv16:	pushq	%rbx
spmv17:	.cfi_def_cfa_offset 56
spmv18:	subq	$72, %rsp
spmv19:	.cfi_def_cfa_offset 128
spmv20:	.cfi_offset %rbx, -56
spmv21:	.cfi_offset %r12, -48
spmv22:	.cfi_offset %r13, -40
spmv23:	.cfi_offset %r14, -32
spmv24:	.cfi_offset %r15, -24
spmv25:	.cfi_offset %rbp, -16
spmv26:	cmpq	128(%rsp), %r9
spmv27:	jae	.LBB0_17
spmv28:	movq	%rcx, %rbx
spmv29:	leaq	96(%rdx), %rcx
spmv30:	movq	%rdx, %r12
spmv31:	nop
spmv32:	leaq	48(%rdi), %rax
spmv33:	movq	%rdi, %r15
spmv34:	vxorps	%xmm9, %xmm9, %xmm9
spmv35:	movq	%rax, 40(%rsp)
spmv36:	movq	%rcx, 32(%rsp)
spmv37:	.p2align	4, 0x90
.LBB0_2:
spmv38:	movq	(%rsi,%r9,8), %r14
spmv39:	movq	8(%rsi,%r9,8), %r13
spmv40:	vxorps	%xmm0, %xmm0, %xmm0
spmv41:	cmpq	%r13, %r14
spmv42:	jae	.LBB0_14
spmv43:	movq	%r13, %rdi
spmv44:	vxorps	%xmm0, %xmm0, %xmm0
spmv45:	notq	%rdi
spmv46:	movq	%rdi, 8(%rsp)
spmv47:	.p2align	4, 0x90
.LBB0_4:
spmv48:	leaq	1024(%r14), %rax
spmv49:	cmpq	%rax, %r13
spmv50:	cmovbq	%r13, %rax
spmv51:	cmpq	%rax, %r14
spmv52:	jae	.LBB0_11
spmv53:	movq	$-1025, %rcx
spmv54:	movq	%r14, %r10
spmv55:	subq	%r14, %rcx
spmv56:	notq	%r10
spmv57:	cmpq	%rdi, %rcx
spmv58:	cmovbq	%rdi, %rcx
spmv59:	subq	%rcx, %r10
spmv60:	cmpq	$16, %r10
spmv61:	jb	.LBB0_9
spmv62:	movq	40(%rsp), %rcx
spmv63:	movq	%r10, %r11
spmv64:	vblendps	$1, %xmm0, %xmm9, %xmm8
spmv65:	vxorps	%xmm1, %xmm1, %xmm1
spmv66:	vxorps	%xmm2, %xmm2, %xmm2
spmv67:	vxorps	%xmm3, %xmm3, %xmm3
spmv68:	andq	$-16, %r11
spmv69:	leaq	(%rcx,%r14,4), %rdx
spmv70:	movq	32(%rsp), %rcx
spmv71:	leaq	(%rcx,%r14,8), %rdi
spmv72:	leaq	(%r14,%r11), %r14
spmv73:	xorl	%ecx, %ecx
spmv74:	.p2align	4, 0x90
.LBB0_7:
spmv75:	vmovdqu	-96(%rdi,%rcx,8), %ymm6
spmv76:	vmovdqu	-64(%rdi,%rcx,8), %ymm7
spmv77:	vmovdqu	-32(%rdi,%rcx,8), %ymm5
spmv78:	vmovdqu	(%rdi,%rcx,8), %ymm4
spmv79:	vmovq	%xmm6, %rbp
spmv80:	vmovss	(%rbx,%rbp,4), %xmm0
spmv81:	vpextrq	$1, %xmm6, %rbp
spmv82:	vextracti128	$1, %ymm6, %xmm6
spmv83:	vinsertps	$16, (%rbx,%rbp,4), %xmm0, %xmm0
spmv84:	vmovq	%xmm6, %rbp
spmv85:	vinsertps	$32, (%rbx,%rbp,4), %xmm0, %xmm0
spmv86:	vpextrq	$1, %xmm6, %rbp
spmv87:	vinsertps	$48, (%rbx,%rbp,4), %xmm0, %xmm0
spmv88:	vmovq	%xmm7, %rbp
spmv89:	vmovss	(%rbx,%rbp,4), %xmm6
spmv90:	vpextrq	$1, %xmm7, %rbp
spmv91:	vextracti128	$1, %ymm7, %xmm7
spmv92:	vmulps	-48(%rdx,%rcx,4), %xmm0, %xmm0
spmv93:	vinsertps	$16, (%rbx,%rbp,4), %xmm6, %xmm6
spmv94:	vmovq	%xmm7, %rbp
spmv95:	vinsertps	$32, (%rbx,%rbp,4), %xmm6, %xmm6
spmv96:	vpextrq	$1, %xmm7, %rbp
spmv97:	vinsertps	$48, (%rbx,%rbp,4), %xmm6, %xmm6
spmv98:	vmovq	%xmm5, %rbp
spmv99:	vaddps	%xmm0, %xmm8, %xmm8
spmv100:	vmovss	(%rbx,%rbp,4), %xmm7
spmv101:	vpextrq	$1, %xmm5, %rbp
spmv102:	vextracti128	$1, %ymm5, %xmm5
spmv103:	vmulps	-32(%rdx,%rcx,4), %xmm6, %xmm0
spmv104:	vinsertps	$16, (%rbx,%rbp,4), %xmm7, %xmm7
spmv105:	vmovq	%xmm5, %rbp
spmv106:	vinsertps	$32, (%rbx,%rbp,4), %xmm7, %xmm7
spmv107:	vpextrq	$1, %xmm5, %rbp
spmv108:	vinsertps	$48, (%rbx,%rbp,4), %xmm7, %xmm5
spmv109:	vmovq	%xmm4, %rbp
spmv110:	vaddps	%xmm0, %xmm1, %xmm1
spmv111:	vmovss	(%rbx,%rbp,4), %xmm7
spmv112:	vpextrq	$1, %xmm4, %rbp
spmv113:	vextracti128	$1, %ymm4, %xmm4
spmv114:	vmulps	-16(%rdx,%rcx,4), %xmm5, %xmm0
spmv115:	vinsertps	$16, (%rbx,%rbp,4), %xmm7, %xmm7
spmv116:	vmovq	%xmm4, %rbp
spmv117:	vinsertps	$32, (%rbx,%rbp,4), %xmm7, %xmm7
spmv118:	vpextrq	$1, %xmm4, %rbp
spmv119:	vinsertps	$48, (%rbx,%rbp,4), %xmm7, %xmm4
spmv120:	vaddps	%xmm0, %xmm2, %xmm2
spmv121:	vmulps	(%rdx,%rcx,4), %xmm4, %xmm4
spmv122:	addq	$16, %rcx
spmv123:	cmpq	%rcx, %r11
spmv124:	vaddps	%xmm4, %xmm3, %xmm3
spmv125:	jne	.LBB0_7
spmv126:	vaddps	%xmm8, %xmm1, %xmm0
spmv127:	nop
spmv128:	movq	8(%rsp), %rdi
spmv129:	cmpq	%r11, %r10
spmv130:	vaddps	%xmm0, %xmm2, %xmm0
spmv131:	vaddps	%xmm0, %xmm3, %xmm0
spmv132:	vpermilpd	$1, %xmm0, %xmm1
spmv133:	vaddps	%xmm1, %xmm0, %xmm0
spmv134:	vhaddps	%xmm0, %xmm0, %xmm0
spmv135:	je	.LBB0_10
spmv136:	.p2align	4, 0x90
.LBB0_9:
spmv137:	movq	(%r12,%r14,8), %rcx
spmv138:	vmovss	(%r15,%r14,4), %xmm1
spmv139:	incq	%r14
spmv140:	cmpq	%rax, %r14
spmv141:	vmulss	(%rbx,%rcx,4), %xmm1, %xmm1
spmv142:	vaddss	%xmm1, %xmm0, %xmm0
spmv143:	jb	.LBB0_9
.LBB0_10:
spmv144:	movq	%rax, %r14
.LBB0_11:
spmv145:	cmpq	%r13, %r14
spmv146:	jae	.LBB0_14
spmv147:	cmpl	$0, (%rdx)
spmv148:	jmp	.LBB0_4
spmv149:	subq	$8, %rsp
spmv150:	.cfi_adjust_cfa_offset 8
spmv151:	movq	%r15, %rdi
spmv152:	movq	%r12, %rdx
spmv153:	movq	%rbx, %rcx
spmv154:	movq	%r9, %rbp
spmv155:	pushq	%r13
spmv156:	.cfi_adjust_cfa_offset 8
spmv157:	pushq	%r14
spmv158:	.cfi_adjust_cfa_offset 8
spmv159:	pushq	152(%rsp)
spmv160:	.cfi_adjust_cfa_offset 8
spmv161:	movq	%r8, 56(%rsp)
spmv162:	movq	%rsi, 48(%rsp)
spmv163:	vmovaps	%xmm0, 80(%rsp)
spmv164:	vzeroupper
spmv165:	callq	_Z16col_loop_handlerPfPmS0_S_S_mmmmf@PLT
spmv166:	vmovaps	80(%rsp), %xmm0
spmv167:	movq	40(%rsp), %rdi
spmv168:	nop
spmv169:	movq	48(%rsp), %rsi
spmv170:	movq	56(%rsp), %r8
spmv171:	vxorps	%xmm9, %xmm9, %xmm9
spmv172:	movq	%rbp, %r9
spmv173:	addq	$32, %rsp
spmv174:	.cfi_adjust_cfa_offset -32
spmv175:	testl	%eax, %eax
spmv176:	je	.LBB0_4
spmv177:	jmp	.LBB0_17
spmv178:	.p2align	4, 0x90
.LBB0_14:
spmv179:	vmovss	%xmm0, (%r8,%r9,4)
spmv180:	incq	%r9
spmv181:	cmpq	128(%rsp), %r9
spmv182:	jae	.LBB0_17
spmv183:	cmpl	$0, (%rdx)
spmv184:	jmp	.LBB0_2
spmv185:	subq	$8, %rsp
spmv186:	.cfi_adjust_cfa_offset 8
spmv187:	movq	%r12, %rdx
spmv188:	movq	%r15, %rdi
spmv189:	movq	%rbx, %rcx
spmv190:	movq	%r9, %rbp
spmv191:	pushq	136(%rsp)
spmv192:	.cfi_adjust_cfa_offset 8
spmv193:	movq	%r8, %r14
spmv194:	movq	%rsi, %r13
spmv195:	vzeroupper
spmv196:	callq	_Z16row_loop_handlerPfPmS0_S_S_mm@PLT
spmv197:	nop
spmv198:	vxorps	%xmm9, %xmm9, %xmm9
spmv199:	movq	%r13, %rsi
spmv200:	movq	%r14, %r8
spmv201:	movq	%rbp, %r9
spmv202:	addq	$16, %rsp
spmv203:	.cfi_adjust_cfa_offset -16
spmv204:	testl	%eax, %eax
spmv205:	je	.LBB0_2
.LBB0_17:
spmv206:	addq	$72, %rsp
spmv207:	.cfi_def_cfa_offset 56
spmv208:	popq	%rbx
spmv209:	.cfi_def_cfa_offset 48
spmv210:	popq	%r12
spmv211:	.cfi_def_cfa_offset 40
spmv212:	popq	%r13
spmv213:	.cfi_def_cfa_offset 32
spmv214:	popq	%r14
spmv215:	.cfi_def_cfa_offset 24
spmv216:	popq	%r15
spmv217:	.cfi_def_cfa_offset 16
spmv218:	popq	%rbp
spmv219:	.cfi_def_cfa_offset 8
spmv220:	vzeroupper
spmv221:	retq
.Lfunc_end0:
spmv222:	.size	_Z14spmv_interruptPfPmS0_S_S_mm, .Lfunc_end0-_Z14spmv_interruptPfPmS0_S_S_mm
spmv223:	.cfi_endproc
spmv224:
spmv225:	.globl	_Z23spmv_interrupt_col_loopPfPmS0_S_S_mmfS_
spmv226:	.p2align	4, 0x90
spmv227:	.type	_Z23spmv_interrupt_col_loopPfPmS0_S_S_mmfS_,@function
_Z23spmv_interrupt_col_loopPfPmS0_S_S_mmfS_:
spmv228:	.cfi_startproc
spmv229:	pushq	%rbp
spmv230:	.cfi_def_cfa_offset 16
spmv231:	pushq	%r15
spmv232:	.cfi_def_cfa_offset 24
spmv233:	pushq	%r14
spmv234:	.cfi_def_cfa_offset 32
spmv235:	pushq	%r13
spmv236:	.cfi_def_cfa_offset 40
spmv237:	pushq	%r12
spmv238:	.cfi_def_cfa_offset 48
spmv239:	pushq	%rbx
spmv240:	.cfi_def_cfa_offset 56
spmv241:	subq	$56, %rsp
spmv242:	.cfi_def_cfa_offset 112
spmv243:	.cfi_offset %rbx, -56
spmv244:	.cfi_offset %r12, -48
spmv245:	.cfi_offset %r13, -40
spmv246:	.cfi_offset %r14, -32
spmv247:	.cfi_offset %r15, -24
spmv248:	.cfi_offset %rbp, -16
spmv249:	movq	112(%rsp), %r14
spmv250:	movq	120(%rsp), %r10
spmv251:	cmpq	%r14, %r9
spmv252:	jae	.LBB1_12
spmv253:	leaq	48(%rdi), %rax
spmv254:	movq	%rdi, %r12
spmv255:	nop
spmv256:	movq	%rdx, %r15
spmv257:	movq	%r14, %rdx
spmv258:	movq	%r9, %r13
spmv259:	movq	%rcx, %rbx
spmv260:	vxorps	%xmm9, %xmm9, %xmm9
spmv261:	notq	%rdx
spmv262:	movq	%rax, 24(%rsp)
spmv263:	leaq	96(%r15), %rax
spmv264:	movq	%rax, 16(%rsp)
spmv265:	movq	%rdx, (%rsp)
spmv266:	.p2align	4, 0x90
.LBB1_2:
spmv267:	leaq	1024(%r13), %rax
spmv268:	cmpq	%r14, %rax
spmv269:	cmovaq	%r14, %rax
spmv270:	cmpq	%rax, %r13
spmv271:	jae	.LBB1_9
spmv272:	movq	$-1025, %rcx
spmv273:	movq	%r13, %r9
spmv274:	subq	%r13, %rcx
spmv275:	notq	%r9
spmv276:	cmpq	%rdx, %rcx
spmv277:	cmovbq	%rdx, %rcx
spmv278:	subq	%rcx, %r9
spmv279:	cmpq	$16, %r9
spmv280:	jb	.LBB1_7
spmv281:	movq	24(%rsp), %rcx
spmv282:	movq	%r9, %r11
spmv283:	vblendps	$1, %xmm0, %xmm9, %xmm8
spmv284:	vxorps	%xmm1, %xmm1, %xmm1
spmv285:	vxorps	%xmm2, %xmm2, %xmm2
spmv286:	vxorps	%xmm3, %xmm3, %xmm3
spmv287:	andq	$-16, %r11
spmv288:	leaq	(%rcx,%r13,4), %rdx
spmv289:	movq	16(%rsp), %rcx
spmv290:	leaq	(%rcx,%r13,8), %rdi
spmv291:	leaq	(%r13,%r11), %r13
spmv292:	xorl	%ecx, %ecx
spmv293:	.p2align	4, 0x90
.LBB1_5:
spmv294:	vmovdqu	-96(%rdi,%rcx,8), %ymm6
spmv295:	vmovdqu	-64(%rdi,%rcx,8), %ymm7
spmv296:	vmovdqu	-32(%rdi,%rcx,8), %ymm5
spmv297:	vmovdqu	(%rdi,%rcx,8), %ymm4
spmv298:	vmovq	%xmm6, %rbp
spmv299:	vmovss	(%rbx,%rbp,4), %xmm0
spmv300:	vpextrq	$1, %xmm6, %rbp
spmv301:	vextracti128	$1, %ymm6, %xmm6
spmv302:	vinsertps	$16, (%rbx,%rbp,4), %xmm0, %xmm0
spmv303:	vmovq	%xmm6, %rbp
spmv304:	vinsertps	$32, (%rbx,%rbp,4), %xmm0, %xmm0
spmv305:	vpextrq	$1, %xmm6, %rbp
spmv306:	vinsertps	$48, (%rbx,%rbp,4), %xmm0, %xmm0
spmv307:	vmovq	%xmm7, %rbp
spmv308:	vmovss	(%rbx,%rbp,4), %xmm6
spmv309:	vpextrq	$1, %xmm7, %rbp
spmv310:	vextracti128	$1, %ymm7, %xmm7
spmv311:	vmulps	-48(%rdx,%rcx,4), %xmm0, %xmm0
spmv312:	vinsertps	$16, (%rbx,%rbp,4), %xmm6, %xmm6
spmv313:	vmovq	%xmm7, %rbp
spmv314:	vinsertps	$32, (%rbx,%rbp,4), %xmm6, %xmm6
spmv315:	vpextrq	$1, %xmm7, %rbp
spmv316:	vinsertps	$48, (%rbx,%rbp,4), %xmm6, %xmm6
spmv317:	vmovq	%xmm5, %rbp
spmv318:	vaddps	%xmm0, %xmm8, %xmm8
spmv319:	vmovss	(%rbx,%rbp,4), %xmm7
spmv320:	vpextrq	$1, %xmm5, %rbp
spmv321:	vextracti128	$1, %ymm5, %xmm5
spmv322:	vmulps	-32(%rdx,%rcx,4), %xmm6, %xmm0
spmv323:	vinsertps	$16, (%rbx,%rbp,4), %xmm7, %xmm7
spmv324:	vmovq	%xmm5, %rbp
spmv325:	vinsertps	$32, (%rbx,%rbp,4), %xmm7, %xmm7
spmv326:	vpextrq	$1, %xmm5, %rbp
spmv327:	vinsertps	$48, (%rbx,%rbp,4), %xmm7, %xmm5
spmv328:	vmovq	%xmm4, %rbp
spmv329:	vaddps	%xmm0, %xmm1, %xmm1
spmv330:	vmovss	(%rbx,%rbp,4), %xmm7
spmv331:	vpextrq	$1, %xmm4, %rbp
spmv332:	vextracti128	$1, %ymm4, %xmm4
spmv333:	vmulps	-16(%rdx,%rcx,4), %xmm5, %xmm0
spmv334:	vinsertps	$16, (%rbx,%rbp,4), %xmm7, %xmm7
spmv335:	vmovq	%xmm4, %rbp
spmv336:	vinsertps	$32, (%rbx,%rbp,4), %xmm7, %xmm7
spmv337:	vpextrq	$1, %xmm4, %rbp
spmv338:	vinsertps	$48, (%rbx,%rbp,4), %xmm7, %xmm4
spmv339:	vaddps	%xmm0, %xmm2, %xmm2
spmv340:	vmulps	(%rdx,%rcx,4), %xmm4, %xmm4
spmv341:	addq	$16, %rcx
spmv342:	cmpq	%rcx, %r11
spmv343:	vaddps	%xmm4, %xmm3, %xmm3
spmv344:	jne	.LBB1_5
spmv345:	vaddps	%xmm8, %xmm1, %xmm0
spmv346:	movq	(%rsp), %rdx
spmv347:	nop
spmv348:	cmpq	%r11, %r9
spmv349:	vaddps	%xmm0, %xmm2, %xmm0
spmv350:	vaddps	%xmm0, %xmm3, %xmm0
spmv351:	vpermilpd	$1, %xmm0, %xmm1
spmv352:	vaddps	%xmm1, %xmm0, %xmm0
spmv353:	vhaddps	%xmm0, %xmm0, %xmm0
spmv354:	je	.LBB1_8
spmv355:	.p2align	4, 0x90
.LBB1_7:
spmv356:	movq	(%r15,%r13,8), %rcx
spmv357:	vmovss	(%r12,%r13,4), %xmm1
spmv358:	incq	%r13
spmv359:	cmpq	%rax, %r13
spmv360:	vmulss	(%rbx,%rcx,4), %xmm1, %xmm1
spmv361:	vaddss	%xmm1, %xmm0, %xmm0
spmv362:	jb	.LBB1_7
.LBB1_8:
spmv363:	movq	%rax, %r13
.LBB1_9:
spmv364:	cmpq	%r14, %r13
spmv365:	jae	.LBB1_12
spmv366:	cmpl	$0, (%rdi)
spmv367:	jmp	.LBB1_2
spmv368:	movq	%r12, %rdi
spmv369:	movq	%r15, %rdx
spmv370:	movq	%rbx, %rcx
spmv371:	movq	%r8, 8(%rsp)
spmv372:	movq	%r13, %r9
spmv373:	pushq	%r10
spmv374:	.cfi_adjust_cfa_offset 8
spmv375:	pushq	%r14
spmv376:	.cfi_adjust_cfa_offset 8
spmv377:	movq	%rsi, %rbp
spmv378:	vmovaps	%xmm0, 48(%rsp)
spmv379:	vzeroupper
spmv380:	callq	_Z25col_loop_handler_col_loopPfPmS0_S_S_mmfS_@PLT
spmv381:	vmovaps	48(%rsp), %xmm0
spmv382:	nop
spmv383:	movq	16(%rsp), %rdx
spmv384:	movq	24(%rsp), %r8
spmv385:	movq	136(%rsp), %r10
spmv386:	vxorps	%xmm9, %xmm9, %xmm9
spmv387:	movq	%rbp, %rsi
spmv388:	addq	$16, %rsp
spmv389:	.cfi_adjust_cfa_offset -16
spmv390:	testl	%eax, %eax
spmv391:	je	.LBB1_2
spmv392:	jmp	.LBB1_13
.LBB1_12:
spmv393:	vmovss	%xmm0, (%r10)
.LBB1_13:
spmv394:	addq	$56, %rsp
spmv395:	.cfi_def_cfa_offset 56
spmv396:	popq	%rbx
spmv397:	.cfi_def_cfa_offset 48
spmv398:	popq	%r12
spmv399:	.cfi_def_cfa_offset 40
spmv400:	popq	%r13
spmv401:	.cfi_def_cfa_offset 32
spmv402:	popq	%r14
spmv403:	.cfi_def_cfa_offset 24
spmv404:	popq	%r15
spmv405:	.cfi_def_cfa_offset 16
spmv406:	popq	%rbp
spmv407:	.cfi_def_cfa_offset 8
spmv408:	vzeroupper
spmv409:	retq
.Lfunc_end1:
spmv410:	.size	_Z23spmv_interrupt_col_loopPfPmS0_S_S_mmfS_, .Lfunc_end1-_Z23spmv_interrupt_col_loopPfPmS0_S_S_mmfS_
spmv411:	.cfi_endproc
spmv412:
spmv413:
spmv414:	nop
spmv415:	nop
spmv416:	nop
spmv417:	nop

spmv0_rf: nop
spmv1_rf: nop
spmv2_rf:	.globl	_Z14spmv_interruptPfPmS0_S_S_mm_rf
spmv3_rf:	.p2align	4, 0x90
spmv4_rf:	.type	_Z14spmv_interruptPfPmS0_S_S_mm_rf,@function
_Z14spmv_interruptPfPmS0_S_S_mm_rf:
spmv5_rf:	.cfi_startproc
spmv6_rf:	pushq	%rbp
spmv7_rf:	.cfi_def_cfa_offset 16
spmv8_rf:	pushq	%r15
spmv9_rf:	.cfi_def_cfa_offset 24
spmv10_rf:	pushq	%r14
spmv11_rf:	.cfi_def_cfa_offset 32
spmv12_rf:	pushq	%r13
spmv13_rf:	.cfi_def_cfa_offset 40
spmv14_rf:	pushq	%r12
spmv15_rf:	.cfi_def_cfa_offset 48
spmv16_rf:	pushq	%rbx
spmv17_rf:	.cfi_def_cfa_offset 56
spmv18_rf:	subq	$72, %rsp
spmv19_rf:	.cfi_def_cfa_offset 128
spmv20_rf:	.cfi_offset %rbx, -56
spmv21_rf:	.cfi_offset %r12, -48
spmv22_rf:	.cfi_offset %r13, -40
spmv23_rf:	.cfi_offset %r14, -32
spmv24_rf:	.cfi_offset %r15, -24
spmv25_rf:	.cfi_offset %rbp, -16
spmv26_rf:	cmpq	128(%rsp), %r9
spmv27_rf:	jae	.LBB0_17_rf
spmv28_rf:	movq	%rcx, %rbx
spmv29_rf:	leaq	96(%rdx), %rcx
spmv30_rf:	movq	%rdx, %r12
spmv31_rf:	nop
spmv32_rf:	leaq	48(%rdi), %rax
spmv33_rf:	movq	%rdi, %r15
spmv34_rf:	vxorps	%xmm9, %xmm9, %xmm9
spmv35_rf:	movq	%rax, 40(%rsp)
spmv36_rf:	movq	%rcx, 32(%rsp)
spmv37_rf:	.p2align	4, 0x90
.LBB0_2_rf:
spmv38_rf:	movq	(%rsi,%r9,8), %r14
spmv39_rf:	movq	8(%rsi,%r9,8), %r13
spmv40_rf:	vxorps	%xmm0, %xmm0, %xmm0
spmv41_rf:	cmpq	%r13, %r14
spmv42_rf:	jae	.LBB0_14_rf
spmv43_rf:	movq	%r13, %rdi
spmv44_rf:	vxorps	%xmm0, %xmm0, %xmm0
spmv45_rf:	notq	%rdi
spmv46_rf:	movq	%rdi, 8(%rsp)
spmv47_rf:	.p2align	4, 0x90
.LBB0_4_rf:
spmv48_rf:	leaq	1024(%r14), %rax
spmv49_rf:	cmpq	%rax, %r13
spmv50_rf:	cmovbq	%r13, %rax
spmv51_rf:	cmpq	%rax, %r14
spmv52_rf:	jae	.LBB0_11_rf
spmv53_rf:	movq	$-1025, %rcx
spmv54_rf:	movq	%r14, %r10
spmv55_rf:	subq	%r14, %rcx
spmv56_rf:	notq	%r10
spmv57_rf:	cmpq	%rdi, %rcx
spmv58_rf:	cmovbq	%rdi, %rcx
spmv59_rf:	subq	%rcx, %r10
spmv60_rf:	cmpq	$16, %r10
spmv61_rf:	jb	.LBB0_9_rf
spmv62_rf:	movq	40(%rsp), %rcx
spmv63_rf:	movq	%r10, %r11
spmv64_rf:	vblendps	$1, %xmm0, %xmm9, %xmm8
spmv65_rf:	vxorps	%xmm1, %xmm1, %xmm1
spmv66_rf:	vxorps	%xmm2, %xmm2, %xmm2
spmv67_rf:	vxorps	%xmm3, %xmm3, %xmm3
spmv68_rf:	andq	$-16, %r11
spmv69_rf:	leaq	(%rcx,%r14,4), %rdx
spmv70_rf:	movq	32(%rsp), %rcx
spmv71_rf:	leaq	(%rcx,%r14,8), %rdi
spmv72_rf:	leaq	(%r14,%r11), %r14
spmv73_rf:	xorl	%ecx, %ecx
spmv74_rf:	.p2align	4, 0x90
.LBB0_7_rf:
spmv75_rf:	vmovdqu	-96(%rdi,%rcx,8), %ymm6
spmv76_rf:	vmovdqu	-64(%rdi,%rcx,8), %ymm7
spmv77_rf:	vmovdqu	-32(%rdi,%rcx,8), %ymm5
spmv78_rf:	vmovdqu	(%rdi,%rcx,8), %ymm4
spmv79_rf:	vmovq	%xmm6, %rbp
spmv80_rf:	vmovss	(%rbx,%rbp,4), %xmm0
spmv81_rf:	vpextrq	$1, %xmm6, %rbp
spmv82_rf:	vextracti128	$1, %ymm6, %xmm6
spmv83_rf:	vinsertps	$16, (%rbx,%rbp,4), %xmm0, %xmm0
spmv84_rf:	vmovq	%xmm6, %rbp
spmv85_rf:	vinsertps	$32, (%rbx,%rbp,4), %xmm0, %xmm0
spmv86_rf:	vpextrq	$1, %xmm6, %rbp
spmv87_rf:	vinsertps	$48, (%rbx,%rbp,4), %xmm0, %xmm0
spmv88_rf:	vmovq	%xmm7, %rbp
spmv89_rf:	vmovss	(%rbx,%rbp,4), %xmm6
spmv90_rf:	vpextrq	$1, %xmm7, %rbp
spmv91_rf:	vextracti128	$1, %ymm7, %xmm7
spmv92_rf:	vmulps	-48(%rdx,%rcx,4), %xmm0, %xmm0
spmv93_rf:	vinsertps	$16, (%rbx,%rbp,4), %xmm6, %xmm6
spmv94_rf:	vmovq	%xmm7, %rbp
spmv95_rf:	vinsertps	$32, (%rbx,%rbp,4), %xmm6, %xmm6
spmv96_rf:	vpextrq	$1, %xmm7, %rbp
spmv97_rf:	vinsertps	$48, (%rbx,%rbp,4), %xmm6, %xmm6
spmv98_rf:	vmovq	%xmm5, %rbp
spmv99_rf:	vaddps	%xmm0, %xmm8, %xmm8
spmv100_rf:	vmovss	(%rbx,%rbp,4), %xmm7
spmv101_rf:	vpextrq	$1, %xmm5, %rbp
spmv102_rf:	vextracti128	$1, %ymm5, %xmm5
spmv103_rf:	vmulps	-32(%rdx,%rcx,4), %xmm6, %xmm0
spmv104_rf:	vinsertps	$16, (%rbx,%rbp,4), %xmm7, %xmm7
spmv105_rf:	vmovq	%xmm5, %rbp
spmv106_rf:	vinsertps	$32, (%rbx,%rbp,4), %xmm7, %xmm7
spmv107_rf:	vpextrq	$1, %xmm5, %rbp
spmv108_rf:	vinsertps	$48, (%rbx,%rbp,4), %xmm7, %xmm5
spmv109_rf:	vmovq	%xmm4, %rbp
spmv110_rf:	vaddps	%xmm0, %xmm1, %xmm1
spmv111_rf:	vmovss	(%rbx,%rbp,4), %xmm7
spmv112_rf:	vpextrq	$1, %xmm4, %rbp
spmv113_rf:	vextracti128	$1, %ymm4, %xmm4
spmv114_rf:	vmulps	-16(%rdx,%rcx,4), %xmm5, %xmm0
spmv115_rf:	vinsertps	$16, (%rbx,%rbp,4), %xmm7, %xmm7
spmv116_rf:	vmovq	%xmm4, %rbp
spmv117_rf:	vinsertps	$32, (%rbx,%rbp,4), %xmm7, %xmm7
spmv118_rf:	vpextrq	$1, %xmm4, %rbp
spmv119_rf:	vinsertps	$48, (%rbx,%rbp,4), %xmm7, %xmm4
spmv120_rf:	vaddps	%xmm0, %xmm2, %xmm2
spmv121_rf:	vmulps	(%rdx,%rcx,4), %xmm4, %xmm4
spmv122_rf:	addq	$16, %rcx
spmv123_rf:	cmpq	%rcx, %r11
spmv124_rf:	vaddps	%xmm4, %xmm3, %xmm3
spmv125_rf:	jne	.LBB0_7_rf
spmv126_rf:	vaddps	%xmm8, %xmm1, %xmm0
spmv127_rf:	nop
spmv128_rf:	movq	8(%rsp), %rdi
spmv129_rf:	cmpq	%r11, %r10
spmv130_rf:	vaddps	%xmm0, %xmm2, %xmm0
spmv131_rf:	vaddps	%xmm0, %xmm3, %xmm0
spmv132_rf:	vpermilpd	$1, %xmm0, %xmm1
spmv133_rf:	vaddps	%xmm1, %xmm0, %xmm0
spmv134_rf:	vhaddps	%xmm0, %xmm0, %xmm0
spmv135_rf:	je	.LBB0_10_rf
spmv136_rf:	.p2align	4, 0x90
.LBB0_9_rf:
spmv137_rf:	movq	(%r12,%r14,8), %rcx
spmv138_rf:	vmovss	(%r15,%r14,4), %xmm1
spmv139_rf:	incq	%r14
spmv140_rf:	cmpq	%rax, %r14
spmv141_rf:	vmulss	(%rbx,%rcx,4), %xmm1, %xmm1
spmv142_rf:	vaddss	%xmm1, %xmm0, %xmm0
spmv143_rf:	jb	.LBB0_9_rf
.LBB0_10_rf:
spmv144_rf:	movq	%rax, %r14
.LBB0_11_rf:
spmv145_rf:	cmpq	%r13, %r14
spmv146_rf:	jae	.LBB0_14_rf
spmv147_rf:	cmpl	$0, (%rdx)
spmv148_rf:	nop
spmv149_rf:	subq	$8, %rsp
spmv150_rf:	.cfi_adjust_cfa_offset 8
spmv151_rf:	movq	%r15, %rdi
spmv152_rf:	movq	%r12, %rdx
spmv153_rf:	movq	%rbx, %rcx
spmv154_rf:	movq	%r9, %rbp
spmv155_rf:	pushq	%r13
spmv156_rf:	.cfi_adjust_cfa_offset 8
spmv157_rf:	pushq	%r14
spmv158_rf:	.cfi_adjust_cfa_offset 8
spmv159_rf:	pushq	152(%rsp)
spmv160_rf:	.cfi_adjust_cfa_offset 8
spmv161_rf:	movq	%r8, 56(%rsp)
spmv162_rf:	movq	%rsi, 48(%rsp)
spmv163_rf:	vmovaps	%xmm0, 80(%rsp)
spmv164_rf:	vzeroupper
spmv165_rf:	callq	_Z16col_loop_handlerPfPmS0_S_S_mmmmf@PLT
spmv166_rf:	vmovaps	80(%rsp), %xmm0
spmv167_rf:	movq	40(%rsp), %rdi
spmv168_rf:	nop
spmv169_rf:	movq	48(%rsp), %rsi
spmv170_rf:	movq	56(%rsp), %r8
spmv171_rf:	vxorps	%xmm9, %xmm9, %xmm9
spmv172_rf:	movq	%rbp, %r9
spmv173_rf:	addq	$32, %rsp
spmv174_rf:	.cfi_adjust_cfa_offset -32
spmv175_rf:	testl	%eax, %eax
spmv176_rf:	je	.LBB0_4_rf
spmv177_rf:	jmp	.LBB0_17_rf
spmv178_rf:	.p2align	4, 0x90
.LBB0_14_rf:
spmv179_rf:	vmovss	%xmm0, (%r8,%r9,4)
spmv180_rf:	incq	%r9
spmv181_rf:	cmpq	128(%rsp), %r9
spmv182_rf:	jae	.LBB0_17_rf
spmv183_rf:	cmpl	$0, (%rdx)
spmv184_rf:	nop
spmv185_rf:	subq	$8, %rsp
spmv186_rf:	.cfi_adjust_cfa_offset 8
spmv187_rf:	movq	%r12, %rdx
spmv188_rf:	movq	%r15, %rdi
spmv189_rf:	movq	%rbx, %rcx
spmv190_rf:	movq	%r9, %rbp
spmv191_rf:	pushq	136(%rsp)
spmv192_rf:	.cfi_adjust_cfa_offset 8
spmv193_rf:	movq	%r8, %r14
spmv194_rf:	movq	%rsi, %r13
spmv195_rf:	vzeroupper
spmv196_rf:	callq	_Z16row_loop_handlerPfPmS0_S_S_mm@PLT
spmv197_rf:	nop
spmv198_rf:	vxorps	%xmm9, %xmm9, %xmm9
spmv199_rf:	movq	%r13, %rsi
spmv200_rf:	movq	%r14, %r8
spmv201_rf:	movq	%rbp, %r9
spmv202_rf:	addq	$16, %rsp
spmv203_rf:	.cfi_adjust_cfa_offset -16
spmv204_rf:	testl	%eax, %eax
spmv205_rf:	je	.LBB0_2_rf
.LBB0_17_rf:
spmv206_rf:	addq	$72, %rsp
spmv207_rf:	.cfi_def_cfa_offset 56
spmv208_rf:	popq	%rbx
spmv209_rf:	.cfi_def_cfa_offset 48
spmv210_rf:	popq	%r12
spmv211_rf:	.cfi_def_cfa_offset 40
spmv212_rf:	popq	%r13
spmv213_rf:	.cfi_def_cfa_offset 32
spmv214_rf:	popq	%r14
spmv215_rf:	.cfi_def_cfa_offset 24
spmv216_rf:	popq	%r15
spmv217_rf:	.cfi_def_cfa_offset 16
spmv218_rf:	popq	%rbp
spmv219_rf:	.cfi_def_cfa_offset 8
spmv220_rf:	vzeroupper
spmv221_rf:	retq
.Lfunc_end0_rf:
spmv222_rf:	.size	_Z14spmv_interruptPfPmS0_S_S_mm_rf, .Lfunc_end0-_Z14spmv_interruptPfPmS0_S_S_mm
spmv223_rf:	.cfi_endproc
spmv224_rf:
spmv225_rf:	.globl	_Z23spmv_interrupt_col_loopPfPmS0_S_S_mmfS__rf
spmv226_rf:	.p2align	4, 0x90
spmv227_rf:	.type	_Z23spmv_interrupt_col_loopPfPmS0_S_S_mmfS__rf,@function
_Z23spmv_interrupt_col_loopPfPmS0_S_S_mmfS__rf:
spmv228_rf:	.cfi_startproc
spmv229_rf:	pushq	%rbp
spmv230_rf:	.cfi_def_cfa_offset 16
spmv231_rf:	pushq	%r15
spmv232_rf:	.cfi_def_cfa_offset 24
spmv233_rf:	pushq	%r14
spmv234_rf:	.cfi_def_cfa_offset 32
spmv235_rf:	pushq	%r13
spmv236_rf:	.cfi_def_cfa_offset 40
spmv237_rf:	pushq	%r12
spmv238_rf:	.cfi_def_cfa_offset 48
spmv239_rf:	pushq	%rbx
spmv240_rf:	.cfi_def_cfa_offset 56
spmv241_rf:	subq	$56, %rsp
spmv242_rf:	.cfi_def_cfa_offset 112
spmv243_rf:	.cfi_offset %rbx, -56
spmv244_rf:	.cfi_offset %r12, -48
spmv245_rf:	.cfi_offset %r13, -40
spmv246_rf:	.cfi_offset %r14, -32
spmv247_rf:	.cfi_offset %r15, -24
spmv248_rf:	.cfi_offset %rbp, -16
spmv249_rf:	movq	112(%rsp), %r14
spmv250_rf:	movq	120(%rsp), %r10
spmv251_rf:	cmpq	%r14, %r9
spmv252_rf:	jae	.LBB1_12_rf
spmv253_rf:	leaq	48(%rdi), %rax
spmv254_rf:	movq	%rdi, %r12
spmv255_rf:	nop
spmv256_rf:	movq	%rdx, %r15
spmv257_rf:	movq	%r14, %rdx
spmv258_rf:	movq	%r9, %r13
spmv259_rf:	movq	%rcx, %rbx
spmv260_rf:	vxorps	%xmm9, %xmm9, %xmm9
spmv261_rf:	notq	%rdx
spmv262_rf:	movq	%rax, 24(%rsp)
spmv263_rf:	leaq	96(%r15), %rax
spmv264_rf:	movq	%rax, 16(%rsp)
spmv265_rf:	movq	%rdx, (%rsp)
spmv266_rf:	.p2align	4, 0x90
.LBB1_2_rf:
spmv267_rf:	leaq	1024(%r13), %rax
spmv268_rf:	cmpq	%r14, %rax
spmv269_rf:	cmovaq	%r14, %rax
spmv270_rf:	cmpq	%rax, %r13
spmv271_rf:	jae	.LBB1_9_rf
spmv272_rf:	movq	$-1025, %rcx
spmv273_rf:	movq	%r13, %r9
spmv274_rf:	subq	%r13, %rcx
spmv275_rf:	notq	%r9
spmv276_rf:	cmpq	%rdx, %rcx
spmv277_rf:	cmovbq	%rdx, %rcx
spmv278_rf:	subq	%rcx, %r9
spmv279_rf:	cmpq	$16, %r9
spmv280_rf:	jb	.LBB1_7_rf
spmv281_rf:	movq	24(%rsp), %rcx
spmv282_rf:	movq	%r9, %r11
spmv283_rf:	vblendps	$1, %xmm0, %xmm9, %xmm8
spmv284_rf:	vxorps	%xmm1, %xmm1, %xmm1
spmv285_rf:	vxorps	%xmm2, %xmm2, %xmm2
spmv286_rf:	vxorps	%xmm3, %xmm3, %xmm3
spmv287_rf:	andq	$-16, %r11
spmv288_rf:	leaq	(%rcx,%r13,4), %rdx
spmv289_rf:	movq	16(%rsp), %rcx
spmv290_rf:	leaq	(%rcx,%r13,8), %rdi
spmv291_rf:	leaq	(%r13,%r11), %r13
spmv292_rf:	xorl	%ecx, %ecx
spmv293_rf:	.p2align	4, 0x90
.LBB1_5_rf:
spmv294_rf:	vmovdqu	-96(%rdi,%rcx,8), %ymm6
spmv295_rf:	vmovdqu	-64(%rdi,%rcx,8), %ymm7
spmv296_rf:	vmovdqu	-32(%rdi,%rcx,8), %ymm5
spmv297_rf:	vmovdqu	(%rdi,%rcx,8), %ymm4
spmv298_rf:	vmovq	%xmm6, %rbp
spmv299_rf:	vmovss	(%rbx,%rbp,4), %xmm0
spmv300_rf:	vpextrq	$1, %xmm6, %rbp
spmv301_rf:	vextracti128	$1, %ymm6, %xmm6
spmv302_rf:	vinsertps	$16, (%rbx,%rbp,4), %xmm0, %xmm0
spmv303_rf:	vmovq	%xmm6, %rbp
spmv304_rf:	vinsertps	$32, (%rbx,%rbp,4), %xmm0, %xmm0
spmv305_rf:	vpextrq	$1, %xmm6, %rbp
spmv306_rf:	vinsertps	$48, (%rbx,%rbp,4), %xmm0, %xmm0
spmv307_rf:	vmovq	%xmm7, %rbp
spmv308_rf:	vmovss	(%rbx,%rbp,4), %xmm6
spmv309_rf:	vpextrq	$1, %xmm7, %rbp
spmv310_rf:	vextracti128	$1, %ymm7, %xmm7
spmv311_rf:	vmulps	-48(%rdx,%rcx,4), %xmm0, %xmm0
spmv312_rf:	vinsertps	$16, (%rbx,%rbp,4), %xmm6, %xmm6
spmv313_rf:	vmovq	%xmm7, %rbp
spmv314_rf:	vinsertps	$32, (%rbx,%rbp,4), %xmm6, %xmm6
spmv315_rf:	vpextrq	$1, %xmm7, %rbp
spmv316_rf:	vinsertps	$48, (%rbx,%rbp,4), %xmm6, %xmm6
spmv317_rf:	vmovq	%xmm5, %rbp
spmv318_rf:	vaddps	%xmm0, %xmm8, %xmm8
spmv319_rf:	vmovss	(%rbx,%rbp,4), %xmm7
spmv320_rf:	vpextrq	$1, %xmm5, %rbp
spmv321_rf:	vextracti128	$1, %ymm5, %xmm5
spmv322_rf:	vmulps	-32(%rdx,%rcx,4), %xmm6, %xmm0
spmv323_rf:	vinsertps	$16, (%rbx,%rbp,4), %xmm7, %xmm7
spmv324_rf:	vmovq	%xmm5, %rbp
spmv325_rf:	vinsertps	$32, (%rbx,%rbp,4), %xmm7, %xmm7
spmv326_rf:	vpextrq	$1, %xmm5, %rbp
spmv327_rf:	vinsertps	$48, (%rbx,%rbp,4), %xmm7, %xmm5
spmv328_rf:	vmovq	%xmm4, %rbp
spmv329_rf:	vaddps	%xmm0, %xmm1, %xmm1
spmv330_rf:	vmovss	(%rbx,%rbp,4), %xmm7
spmv331_rf:	vpextrq	$1, %xmm4, %rbp
spmv332_rf:	vextracti128	$1, %ymm4, %xmm4
spmv333_rf:	vmulps	-16(%rdx,%rcx,4), %xmm5, %xmm0
spmv334_rf:	vinsertps	$16, (%rbx,%rbp,4), %xmm7, %xmm7
spmv335_rf:	vmovq	%xmm4, %rbp
spmv336_rf:	vinsertps	$32, (%rbx,%rbp,4), %xmm7, %xmm7
spmv337_rf:	vpextrq	$1, %xmm4, %rbp
spmv338_rf:	vinsertps	$48, (%rbx,%rbp,4), %xmm7, %xmm4
spmv339_rf:	vaddps	%xmm0, %xmm2, %xmm2
spmv340_rf:	vmulps	(%rdx,%rcx,4), %xmm4, %xmm4
spmv341_rf:	addq	$16, %rcx
spmv342_rf:	cmpq	%rcx, %r11
spmv343_rf:	vaddps	%xmm4, %xmm3, %xmm3
spmv344_rf:	jne	.LBB1_5_rf
spmv345_rf:	vaddps	%xmm8, %xmm1, %xmm0
spmv346_rf:	movq	(%rsp), %rdx
spmv347_rf:	nop
spmv348_rf:	cmpq	%r11, %r9
spmv349_rf:	vaddps	%xmm0, %xmm2, %xmm0
spmv350_rf:	vaddps	%xmm0, %xmm3, %xmm0
spmv351_rf:	vpermilpd	$1, %xmm0, %xmm1
spmv352_rf:	vaddps	%xmm1, %xmm0, %xmm0
spmv353_rf:	vhaddps	%xmm0, %xmm0, %xmm0
spmv354_rf:	je	.LBB1_8_rf
spmv355_rf:	.p2align	4, 0x90
.LBB1_7_rf:
spmv356_rf:	movq	(%r15,%r13,8), %rcx
spmv357_rf:	vmovss	(%r12,%r13,4), %xmm1
spmv358_rf:	incq	%r13
spmv359_rf:	cmpq	%rax, %r13
spmv360_rf:	vmulss	(%rbx,%rcx,4), %xmm1, %xmm1
spmv361_rf:	vaddss	%xmm1, %xmm0, %xmm0
spmv362_rf:	jb	.LBB1_7_rf
.LBB1_8_rf:
spmv363_rf:	movq	%rax, %r13
.LBB1_9_rf:
spmv364_rf:	cmpq	%r14, %r13
spmv365_rf:	jae	.LBB1_12_rf
spmv366_rf:	cmpl	$0, (%rdi)
spmv367_rf:	nop
spmv368_rf:	movq	%r12, %rdi
spmv369_rf:	movq	%r15, %rdx
spmv370_rf:	movq	%rbx, %rcx
spmv371_rf:	movq	%r8, 8(%rsp)
spmv372_rf:	movq	%r13, %r9
spmv373_rf:	pushq	%r10
spmv374_rf:	.cfi_adjust_cfa_offset 8
spmv375_rf:	pushq	%r14
spmv376_rf:	.cfi_adjust_cfa_offset 8
spmv377_rf:	movq	%rsi, %rbp
spmv378_rf:	vmovaps	%xmm0, 48(%rsp)
spmv379_rf:	vzeroupper
spmv380_rf:	callq	_Z25col_loop_handler_col_loopPfPmS0_S_S_mmfS_@PLT
spmv381_rf:	vmovaps	48(%rsp), %xmm0
spmv382_rf:	nop
spmv383_rf:	movq	16(%rsp), %rdx
spmv384_rf:	movq	24(%rsp), %r8
spmv385_rf:	movq	136(%rsp), %r10
spmv386_rf:	vxorps	%xmm9, %xmm9, %xmm9
spmv387_rf:	movq	%rbp, %rsi
spmv388_rf:	addq	$16, %rsp
spmv389_rf:	.cfi_adjust_cfa_offset -16
spmv390_rf:	testl	%eax, %eax
spmv391_rf:	je	.LBB1_2_rf
spmv392_rf:	jmp	.LBB1_13_rf
.LBB1_12_rf:
spmv393_rf:	vmovss	%xmm0, (%r10)
.LBB1_13_rf:
spmv394_rf:	addq	$56, %rsp
spmv395_rf:	.cfi_def_cfa_offset 56
spmv396_rf:	popq	%rbx
spmv397_rf:	.cfi_def_cfa_offset 48
spmv398_rf:	popq	%r12
spmv399_rf:	.cfi_def_cfa_offset 40
spmv400_rf:	popq	%r13
spmv401_rf:	.cfi_def_cfa_offset 32
spmv402_rf:	popq	%r14
spmv403_rf:	.cfi_def_cfa_offset 24
spmv404_rf:	popq	%r15
spmv405_rf:	.cfi_def_cfa_offset 16
spmv406_rf:	popq	%rbp
spmv407_rf:	.cfi_def_cfa_offset 8
spmv408_rf:	vzeroupper
spmv409_rf:	retq
.Lfunc_end1_rf:
spmv410_rf:	.size	_Z23spmv_interrupt_col_loopPfPmS0_S_S_mmfS__rf, .Lfunc_end1-_Z23spmv_interrupt_col_loopPfPmS0_S_S_mmfS_
spmv411_rf:	.cfi_endproc
spmv412_rf:
spmv413_rf:
spmv414_rf:	nop
spmv415_rf:	nop
spmv416_rf:	nop
spmv417_rf:	nop

