.text
.p2align 4,,15
.globl  _Z13sum_heartbeatP4nodeRSt5dequeI7vhbkontSaIS2_EE12tpalrts_prml
.type  _Z13sum_heartbeatP4nodeRSt5dequeI7vhbkontSaIS2_EE12tpalrts_prml, @function
.globl  _Z13sum_heartbeatP4nodeRSt5dequeI7vhbkontSaIS2_EE12tpalrts_prml_rf
.type  _Z13sum_heartbeatP4nodeRSt5dequeI7vhbkontSaIS2_EE12tpalrts_prml_rf, @function
.globl  _Z24tpalrts_prmlist_pop_back12tpalrts_prml
.type  _Z24tpalrts_prmlist_pop_back12tpalrts_prml, @function
.globl  _Z24tpalrts_prmlist_pop_back12tpalrts_prml_rf
.type  _Z24tpalrts_prmlist_pop_back12tpalrts_prml_rf, @function
.globl  _Z25tpalrts_prmlist_push_back12tpalrts_prmlP17tpalrts_prml_node
.type  _Z25tpalrts_prmlist_push_back12tpalrts_prmlP17tpalrts_prml_node, @function
.globl  _Z25tpalrts_prmlist_push_back12tpalrts_prmlP17tpalrts_prml_node_rf
.type  _Z25tpalrts_prmlist_push_back12tpalrts_prmlP17tpalrts_prml_node_rf, @function
.globl  _ZNSt5dequeI7vhbkontSaIS0_EE17_M_reallocate_mapEmb
.type  _ZNSt5dequeI7vhbkontSaIS0_EE17_M_reallocate_mapEmb, @function
.globl  _ZNSt5dequeI7vhbkontSaIS0_EE17_M_reallocate_mapEmb_rf
.type  _ZNSt5dequeI7vhbkontSaIS0_EE17_M_reallocate_mapEmb_rf, @function
.globl  str0
.type  str0, @function
.globl  str0_rf
.type  str0_rf, @function
.globl  str1
.type  str1, @function
.globl  str1_rf
.type  str1_rf, @function
.globl  str2
.type  str2, @function
.globl  str2_rf
.type  str2_rf, @function
.globl  str3
.type  str3, @function
.globl  str3_rf
.type  str3_rf, @function
.globl  str4
.type  str4, @function
.globl  str4_rf
.type  str4_rf, @function
.globl  str5
.type  str5, @function
.globl  str5_rf
.type  str5_rf, @function
.globl  str6
.type  str6, @function
.globl  str6_rf
.type  str6_rf, @function
.globl  str7
.type  str7, @function
.globl  str7_rf
.type  str7_rf, @function
.globl  str8
.type  str8, @function
.globl  str8_rf
.type  str8_rf, @function
.globl  str9
.type  str9, @function
.globl  str9_rf
.type  str9_rf, @function
.globl  str10
.type  str10, @function
.globl  str10_rf
.type  str10_rf, @function
.globl  str11
.type  str11, @function
.globl  str11_rf
.type  str11_rf, @function
.globl  str12
.type  str12, @function
.globl  str12_rf
.type  str12_rf, @function
.globl  str13
.type  str13, @function
.globl  str13_rf
.type  str13_rf, @function
.globl  str14
.type  str14, @function
.globl  str14_rf
.type  str14_rf, @function
.globl  str15
.type  str15, @function
.globl  str15_rf
.type  str15_rf, @function
.globl  str16
.type  str16, @function
.globl  str16_rf
.type  str16_rf, @function
.globl  str17
.type  str17, @function
.globl  str17_rf
.type  str17_rf, @function
.globl  str18
.type  str18, @function
.globl  str18_rf
.type  str18_rf, @function
.globl  str19
.type  str19, @function
.globl  str19_rf
.type  str19_rf, @function
.globl  str20
.type  str20, @function
.globl  str20_rf
.type  str20_rf, @function
.globl  str21
.type  str21, @function
.globl  str21_rf
.type  str21_rf, @function
.globl  str22
.type  str22, @function
.globl  str22_rf
.type  str22_rf, @function
.globl  str23
.type  str23, @function
.globl  str23_rf
.type  str23_rf, @function
.globl  str24
.type  str24, @function
.globl  str24_rf
.type  str24_rf, @function
.globl  str25
.type  str25, @function
.globl  str25_rf
.type  str25_rf, @function
.globl  str26
.type  str26, @function
.globl  str26_rf
.type  str26_rf, @function
.globl  str27
.type  str27, @function
.globl  str27_rf
.type  str27_rf, @function
.globl  str28
.type  str28, @function
.globl  str28_rf
.type  str28_rf, @function
.globl  str29
.type  str29, @function
.globl  str29_rf
.type  str29_rf, @function
.globl  str30
.type  str30, @function
.globl  str30_rf
.type  str30_rf, @function
.globl  str31
.type  str31, @function
.globl  str31_rf
.type  str31_rf, @function
.globl  str32
.type  str32, @function
.globl  str32_rf
.type  str32_rf, @function
.globl  str33
.type  str33, @function
.globl  str33_rf
.type  str33_rf, @function
.globl  str34
.type  str34, @function
.globl  str34_rf
.type  str34_rf, @function
.globl  str35
.type  str35, @function
.globl  str35_rf
.type  str35_rf, @function
.globl  str36
.type  str36, @function
.globl  str36_rf
.type  str36_rf, @function
.globl  str37
.type  str37, @function
.globl  str37_rf
.type  str37_rf, @function
.globl  str38
.type  str38, @function
.globl  str38_rf
.type  str38_rf, @function
.globl  str39
.type  str39, @function
.globl  str39_rf
.type  str39_rf, @function
.globl  str40
.type  str40, @function
.globl  str40_rf
.type  str40_rf, @function
.globl  str41
.type  str41, @function
.globl  str41_rf
.type  str41_rf, @function
.globl  str42
.type  str42, @function
.globl  str42_rf
.type  str42_rf, @function
.globl  str43
.type  str43, @function
.globl  str43_rf
.type  str43_rf, @function
.globl  str44
.type  str44, @function
.globl  str44_rf
.type  str44_rf, @function
.globl  str45
.type  str45, @function
.globl  str45_rf
.type  str45_rf, @function
.globl  str46
.type  str46, @function
.globl  str46_rf
.type  str46_rf, @function
.globl  str47
.type  str47, @function
.globl  str47_rf
.type  str47_rf, @function
.globl  str48
.type  str48, @function
.globl  str48_rf
.type  str48_rf, @function
.globl  str49
.type  str49, @function
.globl  str49_rf
.type  str49_rf, @function
.globl  str50
.type  str50, @function
.globl  str50_rf
.type  str50_rf, @function
.globl  str51
.type  str51, @function
.globl  str51_rf
.type  str51_rf, @function
.globl  str52
.type  str52, @function
.globl  str52_rf
.type  str52_rf, @function
.globl  str53
.type  str53, @function
.globl  str53_rf
.type  str53_rf, @function
.globl  str54
.type  str54, @function
.globl  str54_rf
.type  str54_rf, @function
.globl  str55
.type  str55, @function
.globl  str55_rf
.type  str55_rf, @function
.globl  str56
.type  str56, @function
.globl  str56_rf
.type  str56_rf, @function
.globl  str57
.type  str57, @function
.globl  str57_rf
.type  str57_rf, @function
.globl  str58
.type  str58, @function
.globl  str58_rf
.type  str58_rf, @function
.globl  str59
.type  str59, @function
.globl  str59_rf
.type  str59_rf, @function
.globl  str60
.type  str60, @function
.globl  str60_rf
.type  str60_rf, @function
.globl  str61
.type  str61, @function
.globl  str61_rf
.type  str61_rf, @function
.globl  str62
.type  str62, @function
.globl  str62_rf
.type  str62_rf, @function
.globl  str63
.type  str63, @function
.globl  str63_rf
.type  str63_rf, @function
.globl  str64
.type  str64, @function
.globl  str64_rf
.type  str64_rf, @function
.globl  str65
.type  str65, @function
.globl  str65_rf
.type  str65_rf, @function
.globl  str66
.type  str66, @function
.globl  str66_rf
.type  str66_rf, @function
.globl  str67
.type  str67, @function
.globl  str67_rf
.type  str67_rf, @function
.globl  str68
.type  str68, @function
.globl  str68_rf
.type  str68_rf, @function
.globl  str69
.type  str69, @function
.globl  str69_rf
.type  str69_rf, @function
.globl  str70
.type  str70, @function
.globl  str70_rf
.type  str70_rf, @function
.globl  str71
.type  str71, @function
.globl  str71_rf
.type  str71_rf, @function
.globl  str72
.type  str72, @function
.globl  str72_rf
.type  str72_rf, @function
.globl  str73
.type  str73, @function
.globl  str73_rf
.type  str73_rf, @function
.globl  str74
.type  str74, @function
.globl  str74_rf
.type  str74_rf, @function
.globl  str75
.type  str75, @function
.globl  str75_rf
.type  str75_rf, @function
.globl  str76
.type  str76, @function
.globl  str76_rf
.type  str76_rf, @function
.globl  str77
.type  str77, @function
.globl  str77_rf
.type  str77_rf, @function
.globl  str78
.type  str78, @function
.globl  str78_rf
.type  str78_rf, @function
.globl  str79
.type  str79, @function
.globl  str79_rf
.type  str79_rf, @function
.globl  str80
.type  str80, @function
.globl  str80_rf
.type  str80_rf, @function
.globl  str81
.type  str81, @function
.globl  str81_rf
.type  str81_rf, @function
.globl  str82
.type  str82, @function
.globl  str82_rf
.type  str82_rf, @function
.globl  str83
.type  str83, @function
.globl  str83_rf
.type  str83_rf, @function
.globl  str84
.type  str84, @function
.globl  str84_rf
.type  str84_rf, @function
.globl  str85
.type  str85, @function
.globl  str85_rf
.type  str85_rf, @function
.globl  str86
.type  str86, @function
.globl  str86_rf
.type  str86_rf, @function
.globl  str87
.type  str87, @function
.globl  str87_rf
.type  str87_rf, @function
.globl  str88
.type  str88, @function
.globl  str88_rf
.type  str88_rf, @function
.globl  str89
.type  str89, @function
.globl  str89_rf
.type  str89_rf, @function
.globl  str90
.type  str90, @function
.globl  str90_rf
.type  str90_rf, @function
.globl  str91
.type  str91, @function
.globl  str91_rf
.type  str91_rf, @function
.globl  str92
.type  str92, @function
.globl  str92_rf
.type  str92_rf, @function
.globl  str93
.type  str93, @function
.globl  str93_rf
.type  str93_rf, @function
.globl  str94
.type  str94, @function
.globl  str94_rf
.type  str94_rf, @function
.globl  str95
.type  str95, @function
.globl  str95_rf
.type  str95_rf, @function
.globl  str96
.type  str96, @function
.globl  str96_rf
.type  str96_rf, @function
.globl  str97
.type  str97, @function
.globl  str97_rf
.type  str97_rf, @function
.globl  str98
.type  str98, @function
.globl  str98_rf
.type  str98_rf, @function
.globl  str99
.type  str99, @function
.globl  str99_rf
.type  str99_rf, @function
.globl  str100
.type  str100, @function
.globl  str100_rf
.type  str100_rf, @function
.globl  str101
.type  str101, @function
.globl  str101_rf
.type  str101_rf, @function
.globl  str102
.type  str102, @function
.globl  str102_rf
.type  str102_rf, @function
.globl  str103
.type  str103, @function
.globl  str103_rf
.type  str103_rf, @function
.globl  str104
.type  str104, @function
.globl  str104_rf
.type  str104_rf, @function
.globl  str105
.type  str105, @function
.globl  str105_rf
.type  str105_rf, @function
.globl  str106
.type  str106, @function
.globl  str106_rf
.type  str106_rf, @function
.globl  str107
.type  str107, @function
.globl  str107_rf
.type  str107_rf, @function
.globl  str108
.type  str108, @function
.globl  str108_rf
.type  str108_rf, @function
.globl  str109
.type  str109, @function
.globl  str109_rf
.type  str109_rf, @function
.globl  str110
.type  str110, @function
.globl  str110_rf
.type  str110_rf, @function
.globl  str111
.type  str111, @function
.globl  str111_rf
.type  str111_rf, @function
.globl  str112
.type  str112, @function
.globl  str112_rf
.type  str112_rf, @function
.globl  str113
.type  str113, @function
.globl  str113_rf
.type  str113_rf, @function
.globl  str114
.type  str114, @function
.globl  str114_rf
.type  str114_rf, @function
.globl  str115
.type  str115, @function
.globl  str115_rf
.type  str115_rf, @function
.globl  str116
.type  str116, @function
.globl  str116_rf
.type  str116_rf, @function
.globl  str117
.type  str117, @function
.globl  str117_rf
.type  str117_rf, @function
.globl  str118
.type  str118, @function
.globl  str118_rf
.type  str118_rf, @function
.globl  str119
.type  str119, @function
.globl  str119_rf
.type  str119_rf, @function
.globl  str120
.type  str120, @function
.globl  str120_rf
.type  str120_rf, @function
.globl  str121
.type  str121, @function
.globl  str121_rf
.type  str121_rf, @function
.globl  str122
.type  str122, @function
.globl  str122_rf
.type  str122_rf, @function
.globl  str123
.type  str123, @function
.globl  str123_rf
.type  str123_rf, @function
.globl  str124
.type  str124, @function
.globl  str124_rf
.type  str124_rf, @function
.globl  str125
.type  str125, @function
.globl  str125_rf
.type  str125_rf, @function
.globl  str126
.type  str126, @function
.globl  str126_rf
.type  str126_rf, @function
.globl  str127
.type  str127, @function
.globl  str127_rf
.type  str127_rf, @function
.globl  str128
.type  str128, @function
.globl  str128_rf
.type  str128_rf, @function
.globl  str129
.type  str129, @function
.globl  str129_rf
.type  str129_rf, @function
.globl  str130
.type  str130, @function
.globl  str130_rf
.type  str130_rf, @function
.globl  str131
.type  str131, @function
.globl  str131_rf
.type  str131_rf, @function
.globl  str132
.type  str132, @function
.globl  str132_rf
.type  str132_rf, @function
.globl  str133
.type  str133, @function
.globl  str133_rf
.type  str133_rf, @function
.globl  str134
.type  str134, @function
.globl  str134_rf
.type  str134_rf, @function
.globl  str135
.type  str135, @function
.globl  str135_rf
.type  str135_rf, @function
.globl  str136
.type  str136, @function
.globl  str136_rf
.type  str136_rf, @function
.globl  str137
.type  str137, @function
.globl  str137_rf
.type  str137_rf, @function
.globl  str138
.type  str138, @function
.globl  str138_rf
.type  str138_rf, @function
.globl  str139
.type  str139, @function
.globl  str139_rf
.type  str139_rf, @function
.globl  str140
.type  str140, @function
.globl  str140_rf
.type  str140_rf, @function
.globl  str141
.type  str141, @function
.globl  str141_rf
.type  str141_rf, @function
.globl  str142
.type  str142, @function
.globl  str142_rf
.type  str142_rf, @function
.globl  str143
.type  str143, @function
.globl  str143_rf
.type  str143_rf, @function
.globl  str144
.type  str144, @function
.globl  str144_rf
.type  str144_rf, @function
.globl  str145
.type  str145, @function
.globl  str145_rf
.type  str145_rf, @function
.globl  str146
.type  str146, @function
.globl  str146_rf
.type  str146_rf, @function
.globl  str147
.type  str147, @function
.globl  str147_rf
.type  str147_rf, @function
.globl  str148
.type  str148, @function
.globl  str148_rf
.type  str148_rf, @function
.globl  str149
.type  str149, @function
.globl  str149_rf
.type  str149_rf, @function
.globl  str150
.type  str150, @function
.globl  str150_rf
.type  str150_rf, @function
.globl  str151
.type  str151, @function
.globl  str151_rf
.type  str151_rf, @function
.globl  str152
.type  str152, @function
.globl  str152_rf
.type  str152_rf, @function
.globl  str153
.type  str153, @function
.globl  str153_rf
.type  str153_rf, @function
.globl  str154
.type  str154, @function
.globl  str154_rf
.type  str154_rf, @function
.globl  str155
.type  str155, @function
.globl  str155_rf
.type  str155_rf, @function
.globl  str156
.type  str156, @function
.globl  str156_rf
.type  str156_rf, @function
.globl  str157
.type  str157, @function
.globl  str157_rf
.type  str157_rf, @function
.globl  str158
.type  str158, @function
.globl  str158_rf
.type  str158_rf, @function
.globl  str159
.type  str159, @function
.globl  str159_rf
.type  str159_rf, @function
.globl  str160
.type  str160, @function
.globl  str160_rf
.type  str160_rf, @function
.globl  str161
.type  str161, @function
.globl  str161_rf
.type  str161_rf, @function
.globl  str162
.type  str162, @function
.globl  str162_rf
.type  str162_rf, @function
.globl  str163
.type  str163, @function
.globl  str163_rf
.type  str163_rf, @function
.globl  str164
.type  str164, @function
.globl  str164_rf
.type  str164_rf, @function
.globl  str165
.type  str165, @function
.globl  str165_rf
.type  str165_rf, @function
.globl  str166
.type  str166, @function
.globl  str166_rf
.type  str166_rf, @function
.globl  str167
.type  str167, @function
.globl  str167_rf
.type  str167_rf, @function
.globl  str168
.type  str168, @function
.globl  str168_rf
.type  str168_rf, @function
.globl  str169
.type  str169, @function
.globl  str169_rf
.type  str169_rf, @function
.globl  str170
.type  str170, @function
.globl  str170_rf
.type  str170_rf, @function
.globl  str171
.type  str171, @function
.globl  str171_rf
.type  str171_rf, @function
.globl  str172
.type  str172, @function
.globl  str172_rf
.type  str172_rf, @function
.globl  str173
.type  str173, @function
.globl  str173_rf
.type  str173_rf, @function
.globl  str174
.type  str174, @function
.globl  str174_rf
.type  str174_rf, @function
.globl  str175
.type  str175, @function
.globl  str175_rf
.type  str175_rf, @function
.globl  str176
.type  str176, @function
.globl  str176_rf
.type  str176_rf, @function
.globl  str177
.type  str177, @function
.globl  str177_rf
.type  str177_rf, @function
.globl  str178
.type  str178, @function
.globl  str178_rf
.type  str178_rf, @function
.globl  str179
.type  str179, @function
.globl  str179_rf
.type  str179_rf, @function
.globl  str180
.type  str180, @function
.globl  str180_rf
.type  str180_rf, @function
.globl  str181
.type  str181, @function
.globl  str181_rf
.type  str181_rf, @function
.globl  str182
.type  str182, @function
.globl  str182_rf
.type  str182_rf, @function
.globl  str183
.type  str183, @function
.globl  str183_rf
.type  str183_rf, @function
.globl  str184
.type  str184, @function
.globl  str184_rf
.type  str184_rf, @function
.globl  str185
.type  str185, @function
.globl  str185_rf
.type  str185_rf, @function
.globl  str186
.type  str186, @function
.globl  str186_rf
.type  str186_rf, @function
.globl  str187
.type  str187, @function
.globl  str187_rf
.type  str187_rf, @function
.globl  str188
.type  str188, @function
.globl  str188_rf
.type  str188_rf, @function
.globl  str189
.type  str189, @function
.globl  str189_rf
.type  str189_rf, @function
.globl  str190
.type  str190, @function
.globl  str190_rf
.type  str190_rf, @function
.globl  str191
.type  str191, @function
.globl  str191_rf
.type  str191_rf, @function
.globl  str192
.type  str192, @function
.globl  str192_rf
.type  str192_rf, @function
.globl  str193
.type  str193, @function
.globl  str193_rf
.type  str193_rf, @function
.globl  str194
.type  str194, @function
.globl  str194_rf
.type  str194_rf, @function
.globl  str195
.type  str195, @function
.globl  str195_rf
.type  str195_rf, @function
.globl  str196
.type  str196, @function
.globl  str196_rf
.type  str196_rf, @function
.globl  str197
.type  str197, @function
.globl  str197_rf
.type  str197_rf, @function
.globl  str198
.type  str198, @function
.globl  str198_rf
.type  str198_rf, @function
.globl  str199
.type  str199, @function
.globl  str199_rf
.type  str199_rf, @function
.globl  str200
.type  str200, @function
.globl  str200_rf
.type  str200_rf, @function
.globl  str201
.type  str201, @function
.globl  str201_rf
.type  str201_rf, @function
.globl  str202
.type  str202, @function
.globl  str202_rf
.type  str202_rf, @function
.globl  str203
.type  str203, @function
.globl  str203_rf
.type  str203_rf, @function
.globl  str204
.type  str204, @function
.globl  str204_rf
.type  str204_rf, @function
.globl  str205
.type  str205, @function
.globl  str205_rf
.type  str205_rf, @function
.globl  str206
.type  str206, @function
.globl  str206_rf
.type  str206_rf, @function
.globl  str207
.type  str207, @function
.globl  str207_rf
.type  str207_rf, @function
.globl  str208
.type  str208, @function
.globl  str208_rf
.type  str208_rf, @function
.globl  str209
.type  str209, @function
.globl  str209_rf
.type  str209_rf, @function
.globl  str210
.type  str210, @function
.globl  str210_rf
.type  str210_rf, @function
.globl  str211
.type  str211, @function
.globl  str211_rf
.type  str211_rf, @function
.globl  str212
.type  str212, @function
.globl  str212_rf
.type  str212_rf, @function
.globl  str213
.type  str213, @function
.globl  str213_rf
.type  str213_rf, @function
.globl  str214
.type  str214, @function
.globl  str214_rf
.type  str214_rf, @function
.globl  str215
.type  str215, @function
.globl  str215_rf
.type  str215_rf, @function
.globl  str216
.type  str216, @function
.globl  str216_rf
.type  str216_rf, @function
.globl  str217
.type  str217, @function
.globl  str217_rf
.type  str217_rf, @function
.globl  str218
.type  str218, @function
.globl  str218_rf
.type  str218_rf, @function
.globl  str219
.type  str219, @function
.globl  str219_rf
.type  str219_rf, @function
.globl  str220
.type  str220, @function
.globl  str220_rf
.type  str220_rf, @function
.globl  str221
.type  str221, @function
.globl  str221_rf
.type  str221_rf, @function
.globl  str222
.type  str222, @function
.globl  str222_rf
.type  str222_rf, @function
.globl  str223
.type  str223, @function
.globl  str223_rf
.type  str223_rf, @function
.globl  str224
.type  str224, @function
.globl  str224_rf
.type  str224_rf, @function
.globl  str225
.type  str225, @function
.globl  str225_rf
.type  str225_rf, @function
.globl  str226
.type  str226, @function
.globl  str226_rf
.type  str226_rf, @function
.globl  str227
.type  str227, @function
.globl  str227_rf
.type  str227_rf, @function
.globl  str228
.type  str228, @function
.globl  str228_rf
.type  str228_rf, @function
.globl  str229
.type  str229, @function
.globl  str229_rf
.type  str229_rf, @function
.globl  str230
.type  str230, @function
.globl  str230_rf
.type  str230_rf, @function
.globl  str231
.type  str231, @function
.globl  str231_rf
.type  str231_rf, @function
.globl  str232
.type  str232, @function
.globl  str232_rf
.type  str232_rf, @function
.globl  str233
.type  str233, @function
.globl  str233_rf
.type  str233_rf, @function
.globl  str234
.type  str234, @function
.globl  str234_rf
.type  str234_rf, @function
.globl  str235
.type  str235, @function
.globl  str235_rf
.type  str235_rf, @function
.globl  str236
.type  str236, @function
.globl  str236_rf
.type  str236_rf, @function
.globl  str237
.type  str237, @function
.globl  str237_rf
.type  str237_rf, @function
.globl  str238
.type  str238, @function
.globl  str238_rf
.type  str238_rf, @function
.globl  str239
.type  str239, @function
.globl  str239_rf
.type  str239_rf, @function
.globl  str240
.type  str240, @function
.globl  str240_rf
.type  str240_rf, @function
.globl  str241
.type  str241, @function
.globl  str241_rf
.type  str241_rf, @function
.globl  str242
.type  str242, @function
.globl  str242_rf
.type  str242_rf, @function
.globl  str243
.type  str243, @function
.globl  str243_rf
.type  str243_rf, @function
.globl  str244
.type  str244, @function
.globl  str244_rf
.type  str244_rf, @function
.globl  str245
.type  str245, @function
.globl  str245_rf
.type  str245_rf, @function
.globl  str246
.type  str246, @function
.globl  str246_rf
.type  str246_rf, @function
.globl  str247
.type  str247, @function
.globl  str247_rf
.type  str247_rf, @function
.globl  str248
.type  str248, @function
.globl  str248_rf
.type  str248_rf, @function
.globl  str249
.type  str249, @function
.globl  str249_rf
.type  str249_rf, @function
.globl  str250
.type  str250, @function
.globl  str250_rf
.type  str250_rf, @function
.globl  str251
.type  str251, @function
.globl  str251_rf
.type  str251_rf, @function
.globl  str252
.type  str252, @function
.globl  str252_rf
.type  str252_rf, @function
.globl  str253
.type  str253, @function
.globl  str253_rf
.type  str253_rf, @function
.globl  str254
.type  str254, @function
.globl  str254_rf
.type  str254_rf, @function
.globl  str255
.type  str255, @function
.globl  str255_rf
.type  str255_rf, @function
.globl  str256
.type  str256, @function
.globl  str256_rf
.type  str256_rf, @function
.globl  str257
.type  str257, @function
.globl  str257_rf
.type  str257_rf, @function
.globl  str258
.type  str258, @function
.globl  str258_rf
.type  str258_rf, @function
.globl  str259
.type  str259, @function
.globl  str259_rf
.type  str259_rf, @function
.globl  str260
.type  str260, @function
.globl  str260_rf
.type  str260_rf, @function
.globl  str261
.type  str261, @function
.globl  str261_rf
.type  str261_rf, @function
.globl  str262
.type  str262, @function
.globl  str262_rf
.type  str262_rf, @function
.globl  str263
.type  str263, @function
.globl  str263_rf
.type  str263_rf, @function
.globl  str264
.type  str264, @function
.globl  str264_rf
.type  str264_rf, @function
.globl  str265
.type  str265, @function
.globl  str265_rf
.type  str265_rf, @function
.globl  str266
.type  str266, @function
.globl  str266_rf
.type  str266_rf, @function
.globl  str267
.type  str267, @function
.globl  str267_rf
.type  str267_rf, @function
.globl  str268
.type  str268, @function
.globl  str268_rf
.type  str268_rf, @function
.globl  str269
.type  str269, @function
.globl  str269_rf
.type  str269_rf, @function
.globl  str270
.type  str270, @function
.globl  str270_rf
.type  str270_rf, @function
.globl  str271
.type  str271, @function
.globl  str271_rf
.type  str271_rf, @function
.globl  str272
.type  str272, @function
.globl  str272_rf
.type  str272_rf, @function
.globl  str273
.type  str273, @function
.globl  str273_rf
.type  str273_rf, @function
.globl  str274
.type  str274, @function
.globl  str274_rf
.type  str274_rf, @function
.globl  str275
.type  str275, @function
.globl  str275_rf
.type  str275_rf, @function
.globl  str276
.type  str276, @function
.globl  str276_rf
.type  str276_rf, @function
.globl  str277
.type  str277, @function
.globl  str277_rf
.type  str277_rf, @function
.globl  str278
.type  str278, @function
.globl  str278_rf
.type  str278_rf, @function
.globl  str279
.type  str279, @function
.globl  str279_rf
.type  str279_rf, @function
.globl  str280
.type  str280, @function
.globl  str280_rf
.type  str280_rf, @function
.globl  str281
.type  str281, @function
.globl  str281_rf
.type  str281_rf, @function
.globl  str282
.type  str282, @function
.globl  str282_rf
.type  str282_rf, @function
.globl  str283
.type  str283, @function
.globl  str283_rf
.type  str283_rf, @function
.globl  str284
.type  str284, @function
.globl  str284_rf
.type  str284_rf, @function
.globl  str285
.type  str285, @function
.globl  str285_rf
.type  str285_rf, @function
.globl  str286
.type  str286, @function
.globl  str286_rf
.type  str286_rf, @function
.globl  str287
.type  str287, @function
.globl  str287_rf
.type  str287_rf, @function
.globl  str288
.type  str288, @function
.globl  str288_rf
.type  str288_rf, @function
.globl  str289
.type  str289, @function
.globl  str289_rf
.type  str289_rf, @function
.globl  str290
.type  str290, @function
.globl  str290_rf
.type  str290_rf, @function
.globl  str291
.type  str291, @function
.globl  str291_rf
.type  str291_rf, @function
.globl  str292
.type  str292, @function
.globl  str292_rf
.type  str292_rf, @function
.globl  str293
.type  str293, @function
.globl  str293_rf
.type  str293_rf, @function
.globl  str294
.type  str294, @function
.globl  str294_rf
.type  str294_rf, @function
.globl  str295
.type  str295, @function
.globl  str295_rf
.type  str295_rf, @function
.globl  str296
.type  str296, @function
.globl  str296_rf
.type  str296_rf, @function
.globl  str297
.type  str297, @function
.globl  str297_rf
.type  str297_rf, @function
.globl  str298
.type  str298, @function
.globl  str298_rf
.type  str298_rf, @function
.globl  str299
.type  str299, @function
.globl  str299_rf
.type  str299_rf, @function
.globl  str300
.type  str300, @function
.globl  str300_rf
.type  str300_rf, @function
.globl  str301
.type  str301, @function
.globl  str301_rf
.type  str301_rf, @function
.globl  str302
.type  str302, @function
.globl  str302_rf
.type  str302_rf, @function
.globl  str303
.type  str303, @function
.globl  str303_rf
.type  str303_rf, @function
.globl  str304
.type  str304, @function
.globl  str304_rf
.type  str304_rf, @function
.globl  str305
.type  str305, @function
.globl  str305_rf
.type  str305_rf, @function
.globl  str306
.type  str306, @function
.globl  str306_rf
.type  str306_rf, @function
.globl  str307
.type  str307, @function
.globl  str307_rf
.type  str307_rf, @function
.globl  str308
.type  str308, @function
.globl  str308_rf
.type  str308_rf, @function
.globl  str309
.type  str309, @function
.globl  str309_rf
.type  str309_rf, @function
.globl  str310
.type  str310, @function
.globl  str310_rf
.type  str310_rf, @function
.globl  str311
.type  str311, @function
.globl  str311_rf
.type  str311_rf, @function
.globl  str312
.type  str312, @function
.globl  str312_rf
.type  str312_rf, @function
.globl  str313
.type  str313, @function
.globl  str313_rf
.type  str313_rf, @function
.globl  str314
.type  str314, @function
.globl  str314_rf
.type  str314_rf, @function
.globl  str315
.type  str315, @function
.globl  str315_rf
.type  str315_rf, @function
.globl  str316
.type  str316, @function
.globl  str316_rf
.type  str316_rf, @function
.globl  str317
.type  str317, @function
.globl  str317_rf
.type  str317_rf, @function
.globl  str318
.type  str318, @function
.globl  str318_rf
.type  str318_rf, @function
.globl  str319
.type  str319, @function
.globl  str319_rf
.type  str319_rf, @function
.globl  str320
.type  str320, @function
.globl  str320_rf
.type  str320_rf, @function
.globl  str321
.type  str321, @function
.globl  str321_rf
.type  str321_rf, @function
.globl  str322
.type  str322, @function
.globl  str322_rf
.type  str322_rf, @function
.globl  str323
.type  str323, @function
.globl  str323_rf
.type  str323_rf, @function
.globl  str324
.type  str324, @function
.globl  str324_rf
.type  str324_rf, @function
.globl  str325
.type  str325, @function
.globl  str325_rf
.type  str325_rf, @function
.globl  str326
.type  str326, @function
.globl  str326_rf
.type  str326_rf, @function
.globl  str327
.type  str327, @function
.globl  str327_rf
.type  str327_rf, @function
.globl  str328
.type  str328, @function
.globl  str328_rf
.type  str328_rf, @function
.globl  str329
.type  str329, @function
.globl  str329_rf
.type  str329_rf, @function
.globl  str330
.type  str330, @function
.globl  str330_rf
.type  str330_rf, @function
.globl  str331
.type  str331, @function
.globl  str331_rf
.type  str331_rf, @function
.globl  str332
.type  str332, @function
.globl  str332_rf
.type  str332_rf, @function
.globl  str333
.type  str333, @function
.globl  str333_rf
.type  str333_rf, @function
.globl  str334
.type  str334, @function
.globl  str334_rf
.type  str334_rf, @function
.globl  str335
.type  str335, @function
.globl  str335_rf
.type  str335_rf, @function
.globl  str336
.type  str336, @function
.globl  str336_rf
.type  str336_rf, @function
.globl  str337
.type  str337, @function
.globl  str337_rf
.type  str337_rf, @function
.globl  str338
.type  str338, @function
.globl  str338_rf
.type  str338_rf, @function
.globl  str339
.type  str339, @function
.globl  str339_rf
.type  str339_rf, @function
.globl  str340
.type  str340, @function
.globl  str340_rf
.type  str340_rf, @function
.globl  str341
.type  str341, @function
.globl  str341_rf
.type  str341_rf, @function
.globl  str342
.type  str342, @function
.globl  str342_rf
.type  str342_rf, @function
.globl  str343
.type  str343, @function
.globl  str343_rf
.type  str343_rf, @function
.globl  str344
.type  str344, @function
.globl  str344_rf
.type  str344_rf, @function
.globl  str345
.type  str345, @function
.globl  str345_rf
.type  str345_rf, @function
.globl  str346
.type  str346, @function
.globl  str346_rf
.type  str346_rf, @function
.globl  str347
.type  str347, @function
.globl  str347_rf
.type  str347_rf, @function
.globl  str348
.type  str348, @function
.globl  str348_rf
.type  str348_rf, @function
.globl  str349
.type  str349, @function
.globl  str349_rf
.type  str349_rf, @function
.globl  str350
.type  str350, @function
.globl  str350_rf
.type  str350_rf, @function
.globl  str351
.type  str351, @function
.globl  str351_rf
.type  str351_rf, @function
.globl  str352
.type  str352, @function
.globl  str352_rf
.type  str352_rf, @function
.globl  str353
.type  str353, @function
.globl  str353_rf
.type  str353_rf, @function
.globl  str354
.type  str354, @function
.globl  str354_rf
.type  str354_rf, @function
.globl  str355
.type  str355, @function
.globl  str355_rf
.type  str355_rf, @function
.globl  str356
.type  str356, @function
.globl  str356_rf
.type  str356_rf, @function
.globl  str357
.type  str357, @function
.globl  str357_rf
.type  str357_rf, @function
.globl  str358
.type  str358, @function
.globl  str358_rf
.type  str358_rf, @function
.globl  str359
.type  str359, @function
.globl  str359_rf
.type  str359_rf, @function
.globl  str360
.type  str360, @function
.globl  str360_rf
.type  str360_rf, @function
.globl  str361
.type  str361, @function
.globl  str361_rf
.type  str361_rf, @function
.globl  str362
.type  str362, @function
.globl  str362_rf
.type  str362_rf, @function
.globl  str363
.type  str363, @function
.globl  str363_rf
.type  str363_rf, @function
.globl  str364
.type  str364, @function
.globl  str364_rf
.type  str364_rf, @function
.globl  str365
.type  str365, @function
.globl  str365_rf
.type  str365_rf, @function
.globl  str366
.type  str366, @function
.globl  str366_rf
.type  str366_rf, @function
.globl  str367
.type  str367, @function
.globl  str367_rf
.type  str367_rf, @function
.globl  str368
.type  str368, @function
.globl  str368_rf
.type  str368_rf, @function
.globl  str369
.type  str369, @function
.globl  str369_rf
.type  str369_rf, @function
.globl  str370
.type  str370, @function
.globl  str370_rf
.type  str370_rf, @function
.globl  str371
.type  str371, @function
.globl  str371_rf
.type  str371_rf, @function
.globl  str372
.type  str372, @function
.globl  str372_rf
.type  str372_rf, @function
.globl  str373
.type  str373, @function
.globl  str373_rf
.type  str373_rf, @function
.globl  str374
.type  str374, @function
.globl  str374_rf
.type  str374_rf, @function
.globl  str375
.type  str375, @function
.globl  str375_rf
.type  str375_rf, @function
.globl  str376
.type  str376, @function
.globl  str376_rf
.type  str376_rf, @function
.globl  str377
.type  str377, @function
.globl  str377_rf
.type  str377_rf, @function
.globl  str378
.type  str378, @function
.globl  str378_rf
.type  str378_rf, @function
.globl  str379
.type  str379, @function
.globl  str379_rf
.type  str379_rf, @function
.globl  str380
.type  str380, @function
.globl  str380_rf
.type  str380_rf, @function
.globl  str381
.type  str381, @function
.globl  str381_rf
.type  str381_rf, @function
.globl  str382
.type  str382, @function
.globl  str382_rf
.type  str382_rf, @function
.globl  str383
.type  str383, @function
.globl  str383_rf
.type  str383_rf, @function
.globl  str384
.type  str384, @function
.globl  str384_rf
.type  str384_rf, @function
.globl  str385
.type  str385, @function
.globl  str385_rf
.type  str385_rf, @function
.globl  str386
.type  str386, @function
.globl  str386_rf
.type  str386_rf, @function
.globl  str387
.type  str387, @function
.globl  str387_rf
.type  str387_rf, @function
.globl  str388
.type  str388, @function
.globl  str388_rf
.type  str388_rf, @function
.globl  str389
.type  str389, @function
.globl  str389_rf
.type  str389_rf, @function
.globl  str390
.type  str390, @function
.globl  str390_rf
.type  str390_rf, @function
.globl  str391
.type  str391, @function
.globl  str391_rf
.type  str391_rf, @function
.globl  str392
.type  str392, @function
.globl  str392_rf
.type  str392_rf, @function
.globl  str393
.type  str393, @function
.globl  str393_rf
.type  str393_rf, @function
.globl  str394
.type  str394, @function
.globl  str394_rf
.type  str394_rf, @function
.globl  str395
.type  str395, @function
.globl  str395_rf
.type  str395_rf, @function
.globl  str396
.type  str396, @function
.globl  str396_rf
.type  str396_rf, @function
.globl  str397
.type  str397, @function
.globl  str397_rf
.type  str397_rf, @function
.globl  str398
.type  str398, @function
.globl  str398_rf
.type  str398_rf, @function
.globl  str399
.type  str399, @function
.globl  str399_rf
.type  str399_rf, @function
.globl  str400
.type  str400, @function
.globl  str400_rf
.type  str400_rf, @function
.globl  str401
.type  str401, @function
.globl  str401_rf
.type  str401_rf, @function
.globl  str402
.type  str402, @function
.globl  str402_rf
.type  str402_rf, @function
.globl  str403
.type  str403, @function
.globl  str403_rf
.type  str403_rf, @function
.globl  str404
.type  str404, @function
.globl  str404_rf
.type  str404_rf, @function
.globl  str405
.type  str405, @function
.globl  str405_rf
.type  str405_rf, @function
.globl  str406
.type  str406, @function
.globl  str406_rf
.type  str406_rf, @function
.globl  str407
.type  str407, @function
.globl  str407_rf
.type  str407_rf, @function
.globl  str408
.type  str408, @function
.globl  str408_rf
.type  str408_rf, @function
.globl  str409
.type  str409, @function
.globl  str409_rf
.type  str409_rf, @function
.globl  str410
.type  str410, @function
.globl  str410_rf
.type  str410_rf, @function
.globl  str411
.type  str411, @function
.globl  str411_rf
.type  str411_rf, @function
.globl  str412
.type  str412, @function
.globl  str412_rf
.type  str412_rf, @function
.globl  str413
.type  str413, @function
.globl  str413_rf
.type  str413_rf, @function
.globl  str414
.type  str414, @function
.globl  str414_rf
.type  str414_rf, @function
.globl  str415
.type  str415, @function
.globl  str415_rf
.type  str415_rf, @function
str0:	.text
str1:	.file	"sum_tree.tpal_orig.cpp"
str2:	.globl	_Z25tpalrts_prmlist_push_back12tpalrts_prmlP17tpalrts_prml_node
str3:	.p2align	4, 0x90
str4:	.type	_Z25tpalrts_prmlist_push_back12tpalrts_prmlP17tpalrts_prml_node,@function
_Z25tpalrts_prmlist_push_back12tpalrts_prmlP17tpalrts_prml_node:
str5:	testq	%rsi, %rsi
str6:	je	.LBB0_2
str7:	movq	%rdx, 8(%rsi)
.LBB0_2:
str8:	testq	%rdi, %rdi
str9:	cmoveq	%rdx, %rdi
str10:	movq	%rdi, %rax
str11:	retq
.Lfunc_end0:
str12:	.size	_Z25tpalrts_prmlist_push_back12tpalrts_prmlP17tpalrts_prml_node, .Lfunc_end0-_Z25tpalrts_prmlist_push_back12tpalrts_prmlP17tpalrts_prml_node
str13:
str14:	.globl	_Z24tpalrts_prmlist_pop_back12tpalrts_prml
str15:	.p2align	4, 0x90
str16:	.type	_Z24tpalrts_prmlist_pop_back12tpalrts_prml,@function
_Z24tpalrts_prmlist_pop_back12tpalrts_prml:
str17:	movq	(%rsi), %rdx
str18:	testq	%rdx, %rdx
str19:	je	.LBB1_1
str20:	movq	%rdi, %rax
str21:	movq	$0, 8(%rdx)
str22:	movq	$0, (%rsi)
str23:	retq
.LBB1_1:
str24:	xorl	%edi, %edi
str25:	movq	%rdi, %rax
str26:	retq
.Lfunc_end1:
str27:	.size	_Z24tpalrts_prmlist_pop_back12tpalrts_prml, .Lfunc_end1-_Z24tpalrts_prmlist_pop_back12tpalrts_prml
str28:
str29:	.globl	_Z13sum_heartbeatP4nodeRSt5dequeI7vhbkontSaIS2_EE12tpalrts_prml
str30:	.p2align	4, 0x90
str31:	.type	_Z13sum_heartbeatP4nodeRSt5dequeI7vhbkontSaIS2_EE12tpalrts_prml,@function
_Z13sum_heartbeatP4nodeRSt5dequeI7vhbkontSaIS2_EE12tpalrts_prml:
str32:	.cfi_startproc
str33:	pushq	%rbp
str34:	.cfi_def_cfa_offset 16
str35:	pushq	%r15
str36:	.cfi_def_cfa_offset 24
str37:	pushq	%r14
str38:	.cfi_def_cfa_offset 32
str39:	pushq	%r13
str40:	.cfi_def_cfa_offset 40
str41:	pushq	%r12
str42:	.cfi_def_cfa_offset 48
str43:	pushq	%rbx
str44:	.cfi_def_cfa_offset 56
str45:	subq	$40, %rsp
str46:	.cfi_def_cfa_offset 96
str47:	.cfi_offset %rbx, -56
str48:	.cfi_offset %r12, -48
str49:	.cfi_offset %r13, -40
str50:	.cfi_offset %r14, -32
str51:	.cfi_offset %r15, -24
str52:	.cfi_offset %rbp, -16
str53:	nop
str54:	movq	%rcx, %rax
str55:	movq	%rdx, %r14
str56:	movq	%rsi, %rbx
str57:	movq	%rdi, %r12
str58:	movl	$512, %ebp
str59:	nop
str60:	nop
str61:	jmp	.LBB2_2
str62:	.p2align	4, 0x90
.LBB2_32:
str63:	movq	8(%r12), %r12
str64:	testq	%r14, %r14
str65:	cmoveq	%rax, %r14
str66:	cmpb	$0, (%r13)
str67:	je	.LBB2_2
.LBB2_3:
str68:	movq	%r14, %rdi
str69:	movq	%rax, %rsi
str70:	callq	_Z26sum_tree_heartbeat_handler12tpalrts_prml@PLT
str71:	movq	%rax, %r14
str72:	movq	%rdx, %r15
str73:	testq	%r12, %r12
str74:	je	.LBB2_5
.LBB2_23:
str75:	movq	64(%rbx), %rax
str76:	movq	48(%rbx), %rcx
str77:	addq	$-32, %rax
str78:	cmpq	%rax, %rcx
str79:	je	.LBB2_24
str80:	movl	$0, (%rcx)
str81:	movq	%r15, 8(%rcx)
str82:	movq	$0, 16(%rcx)
str83:	movq	%r12, 24(%rcx)
str84:	movq	48(%rbx), %rax
str85:	addq	$32, %rax
str86:	movq	%rax, 48(%rbx)
str87:	cmpq	56(%rbx), %rax
str88:	je	.LBB2_29
str89:	addq	$-24, %rax
str90:	testq	%r15, %r15
str91:	jne	.LBB2_31
str92:	jmp	.LBB2_32
str93:	.p2align	4, 0x90
.LBB2_24:
str94:	movq	72(%rbx), %rax
str95:	movq	32(%rbx), %rsi
str96:	subq	56(%rbx), %rcx
str97:	subq	16(%rbx), %rsi
str98:	sarq	$5, %rcx
str99:	movq	%rax, %rdx
str100:	subq	40(%rbx), %rdx
str101:	sarq	$5, %rsi
str102:	leaq	(%rcx,%rdx,2), %rcx
str103:	movabsq	$288230376151711759, %rdx
str104:	addq	%rcx, %rsi
str105:	cmpq	%rdx, %rsi
str106:	je	.LBB2_33
str107:	movq	8(%rbx), %rcx
str108:	subq	(%rbx), %rax
str109:	sarq	$3, %rax
str110:	subq	%rax, %rcx
str111:	cmpq	$1, %rcx
str112:	ja	.LBB2_27
str113:	movl	$1, %esi
str114:	xorl	%edx, %edx
str115:	movq	%rbx, %rdi
str116:	callq	_ZNSt5dequeI7vhbkontSaIS0_EE17_M_reallocate_mapEmb@PLT
.LBB2_27:
str117:	movl	$512, %edi
str118:	callq	_Znwm@PLT
str119:	movq	72(%rbx), %rcx
str120:	movq	%rax, 8(%rcx)
str121:	movq	48(%rbx), %rax
str122:	movl	$0, (%rax)
str123:	movq	%r15, 8(%rax)
str124:	movq	$0, 16(%rax)
str125:	movq	%r12, 24(%rax)
str126:	movq	72(%rbx), %rax
str127:	leaq	8(%rax), %rcx
str128:	movq	%rcx, 72(%rbx)
str129:	movq	8(%rax), %rax
str130:	leaq	512(%rax), %rcx
str131:	movq	%rax, 56(%rbx)
str132:	movq	%rcx, 64(%rbx)
str133:	movq	%rax, 48(%rbx)
.LBB2_29:
str134:	movq	72(%rbx), %rax
str135:	movq	-8(%rax), %rax
str136:	addq	%rbp, %rax
str137:	addq	$-24, %rax
str138:	testq	%r15, %r15
str139:	je	.LBB2_32
.LBB2_31:
str140:	movq	%rax, 8(%r15)
str141:	jmp	.LBB2_32
str142:	.p2align	4, 0x90
.LBB2_2:
str143:	movq	%rax, %r15
str144:	testq	%r12, %r12
str145:	jne	.LBB2_23
.LBB2_5:
str146:	leaq	.LJTI2_0(%rip), %r12
str147:	movl	$0, 12(%rsp)
str148:	jmp	.LBB2_6
.LBB2_15:
str149:	addq	$-32, %rdi
str150:	movq	%rdi, 48(%rbx)
str151:	.p2align	4, 0x90
.LBB2_6:
str152:	cmpb	$0, (%r13)
str153:	je	.LBB2_8
str154:	movq	%r14, %rdi
str155:	movq	%r15, %rsi
str156:	callq	_Z26sum_tree_heartbeat_handler12tpalrts_prml@PLT
str157:	movq	%rax, %r14
str158:	movq	%rdx, %r15
.LBB2_8:
str159:	movq	48(%rbx), %rdi
str160:	movq	56(%rbx), %rax
str161:	movq	%rdi, %rcx
str162:	cmpq	%rax, %rdi
str163:	je	.LBB2_9
str164:	movl	-32(%rcx), %edx
str165:	cmpq	$4, %rdx
str166:	ja	.LBB2_6
.LBB2_11:
str167:	movslq	(%r12,%rdx,4), %rsi
str168:	addq	%r12, %rsi
str169:	jmpq	*%rsi
.LBB2_14:
str170:	movl	12(%rsp), %edx
str171:	addl	-24(%rcx), %edx
str172:	movq	-16(%rcx), %rcx
str173:	addl	(%rcx), %edx
str174:	cmpq	%rax, %rdi
str175:	movl	%edx, 12(%rsp)
str176:	jne	.LBB2_15
str177:	callq	_ZdlPv@PLT
str178:	movq	72(%rbx), %rax
str179:	leaq	-8(%rax), %rcx
str180:	movq	%rcx, 72(%rbx)
str181:	movq	-8(%rax), %rax
str182:	movq	%rax, 56(%rbx)
str183:	leaq	512(%rax), %rcx
str184:	addq	$480, %rax
str185:	movq	%rcx, 64(%rbx)
str186:	movq	%rax, 48(%rbx)
str187:	jmp	.LBB2_6
str188:	.p2align	4, 0x90
.LBB2_9:
str189:	movq	72(%rbx), %rcx
str190:	movq	-8(%rcx), %rcx
str191:	addq	%rbp, %rcx
str192:	movl	-32(%rcx), %edx
str193:	cmpq	$4, %rdx
str194:	ja	.LBB2_6
str195:	jmp	.LBB2_11
.LBB2_12:
str196:	movq	(%r15), %rax
str197:	testq	%rax, %rax
str198:	je	.LBB2_13
str199:	movq	$0, 8(%rax)
str200:	movq	$0, (%r15)
str201:	jmp	.LBB2_22
.LBB2_13:
str202:	xorl	%r14d, %r14d
.LBB2_22:
str203:	movq	-8(%rcx), %rdx
str204:	movl	12(%rsp), %esi
str205:	movq	16(%rdx), %r12
str206:	movl	$1, -32(%rcx)
str207:	movl	%esi, -24(%rcx)
str208:	movq	%rdx, -16(%rcx)
str209:	cmpb	$0, (%r13)
str210:	jne	.LBB2_3
str211:	jmp	.LBB2_2
.LBB2_18:
str212:	xorl	%eax, %eax
str213:	cmpl	$3, %edx
str214:	movq	-24(%rcx), %rdx
str215:	movl	12(%rsp), %esi
str216:	setne	%al
str217:	movl	%esi, (%rdx,%rax,4)
str218:	movq	-16(%rcx), %rdi
str219:	jne	.LBB2_20
str220:	movq	-8(%rcx), %rax
str221:	vmovups	(%rax), %xmm0
str222:	vmovaps	%xmm0, 16(%rsp)
str223:	vmovups	(%rbx), %ymm2
str224:	vmovups	32(%rbx), %ymm3
str225:	vmovups	48(%rbx), %ymm4
str226:	vmovups	16(%rax), %ymm0
str227:	vmovups	48(%rax), %ymm1
str228:	vmovups	%ymm3, 32(%rax)
str229:	vmovups	%ymm4, 48(%rax)
str230:	vmovups	%ymm2, (%rax)
str231:	vmovaps	16(%rsp), %xmm2
str232:	vmovups	%xmm2, (%rbx)
str233:	vmovups	%ymm0, 16(%rbx)
str234:	vmovups	%ymm1, 48(%rbx)
.LBB2_20:
str235:	addq	$40, %rsp
str236:	.cfi_def_cfa_offset 56
str237:	popq	%rbx
str238:	.cfi_def_cfa_offset 48
str239:	popq	%r12
str240:	.cfi_def_cfa_offset 40
str241:	popq	%r13
str242:	.cfi_def_cfa_offset 32
str243:	popq	%r14
str244:	.cfi_def_cfa_offset 24
str245:	popq	%r15
str246:	.cfi_def_cfa_offset 16
str247:	popq	%rbp
str248:	.cfi_def_cfa_offset 8
str249:	vzeroupper
str250:	jmp	_Z4joinP4task@PLT
.LBB2_17:
str251:	.cfi_def_cfa_offset 96
str252:	movq	answer@GOTPCREL(%rip), %rax
str253:	movl	12(%rsp), %ecx
str254:	movl	%ecx, (%rax)
str255:	addq	$40, %rsp
str256:	.cfi_def_cfa_offset 56
str257:	popq	%rbx
str258:	.cfi_def_cfa_offset 48
str259:	popq	%r12
str260:	.cfi_def_cfa_offset 40
str261:	popq	%r13
str262:	.cfi_def_cfa_offset 32
str263:	popq	%r14
str264:	.cfi_def_cfa_offset 24
str265:	popq	%r15
str266:	.cfi_def_cfa_offset 16
str267:	popq	%rbp
str268:	.cfi_def_cfa_offset 8
str269:	retq
.LBB2_33:
str270:	.cfi_def_cfa_offset 96
str271:	leaq	.L.str(%rip), %rdi
str272:	callq	_ZSt20__throw_length_errorPKc@PLT
.Lfunc_end2:
str273:	.size	_Z13sum_heartbeatP4nodeRSt5dequeI7vhbkontSaIS2_EE12tpalrts_prml, .Lfunc_end2-_Z13sum_heartbeatP4nodeRSt5dequeI7vhbkontSaIS2_EE12tpalrts_prml
str274:	.cfi_endproc
str275:	.section	.rodata,"a",@progbits
str276:	.p2align	2
.LJTI2_0:
str277:	.long	.LBB2_12-.LJTI2_0
str278:	.long	.LBB2_14-.LJTI2_0
str279:	.long	.LBB2_17-.LJTI2_0
str280:	.long	.LBB2_18-.LJTI2_0
str281:	.long	.LBB2_18-.LJTI2_0
str282:
str283:	.section	.text._ZNSt5dequeI7vhbkontSaIS0_EE17_M_reallocate_mapEmb,"axG",@progbits,_ZNSt5dequeI7vhbkontSaIS0_EE17_M_reallocate_mapEmb,comdat
str284:	.weak	_ZNSt5dequeI7vhbkontSaIS0_EE17_M_reallocate_mapEmb
str285:	.p2align	4, 0x90
str286:	.type	_ZNSt5dequeI7vhbkontSaIS0_EE17_M_reallocate_mapEmb,@function
_ZNSt5dequeI7vhbkontSaIS0_EE17_M_reallocate_mapEmb:
str287:	.cfi_startproc
str288:	pushq	%rbp
str289:	.cfi_def_cfa_offset 16
str290:	pushq	%r15
str291:	.cfi_def_cfa_offset 24
str292:	pushq	%r14
str293:	.cfi_def_cfa_offset 32
str294:	pushq	%r13
str295:	.cfi_def_cfa_offset 40
str296:	pushq	%r12
str297:	.cfi_def_cfa_offset 48
str298:	pushq	%rbx
str299:	.cfi_def_cfa_offset 56
str300:	pushq	%rax
str301:	.cfi_def_cfa_offset 64
str302:	.cfi_offset %rbx, -56
str303:	.cfi_offset %r12, -48
str304:	.cfi_offset %r13, -40
str305:	.cfi_offset %r14, -32
str306:	.cfi_offset %r15, -24
str307:	.cfi_offset %rbp, -16
str308:	movl	%edx, %r12d
str309:	movq	72(%rdi), %rdx
str310:	movq	%rsi, %r14
str311:	movq	40(%rdi), %rsi
str312:	movq	8(%rdi), %rax
str313:	movq	%rdi, %rbx
str314:	movq	%rdx, %rbp
str315:	subq	%rsi, %rbp
str316:	sarq	$3, %rbp
str317:	leaq	1(%rbp,%r14), %r15
str318:	leaq	(%r15,%r15), %rcx
str319:	cmpq	%rcx, %rax
str320:	jbe	.LBB3_4
str321:	subq	%r15, %rax
str322:	movabsq	$4611686018427387902, %rcx
str323:	andq	%rax, %rcx
str324:	xorl	%eax, %eax
str325:	shlq	$2, %rcx
str326:	addq	(%rbx), %rcx
str327:	testb	%r12b, %r12b
str328:	cmovneq	%r14, %rax
str329:	addq	$8, %rdx
str330:	subq	%rsi, %rdx
str331:	leaq	(%rcx,%rax,8), %r14
str332:	cmpq	%rsi, %r14
str333:	jae	.LBB3_8
str334:	testq	%rdx, %rdx
str335:	je	.LBB3_11
str336:	movq	%r14, %rdi
str337:	jmp	.LBB3_10
.LBB3_4:
str338:	cmpq	%r14, %rax
str339:	movq	%rax, %rcx
str340:	cmovbq	%r14, %rcx
str341:	leaq	2(%rax,%rcx), %r13
str342:	movq	%r13, %rax
str343:	shrq	$60, %rax
str344:	jne	.LBB3_12
str345:	leaq	(,%r13,8), %rdi
str346:	callq	_Znwm@PLT
str347:	movq	%r13, %rdx
str348:	movabsq	$4611686018427387902, %rcx
str349:	movq	40(%rbx), %rsi
str350:	subq	%r15, %rdx
str351:	movq	%rax, %r15
str352:	andq	%rdx, %rcx
str353:	movq	72(%rbx), %rdx
str354:	leaq	(%rax,%rcx,4), %rax
str355:	xorl	%ecx, %ecx
str356:	testb	%r12b, %r12b
str357:	cmovneq	%r14, %rcx
str358:	leaq	(%rax,%rcx,8), %r14
str359:	addq	$8, %rdx
str360:	subq	%rsi, %rdx
str361:	je	.LBB3_7
str362:	movq	%r14, %rdi
str363:	callq	memmove@PLT
.LBB3_7:
str364:	movq	(%rbx), %rdi
str365:	callq	_ZdlPv@PLT
str366:	movq	%r15, (%rbx)
str367:	movq	%r13, 8(%rbx)
str368:	jmp	.LBB3_11
.LBB3_8:
str369:	testq	%rdx, %rdx
str370:	je	.LBB3_11
str371:	leaq	1(%rbp), %rax
str372:	leaq	(%r14,%rax,8), %rdi
str373:	subq	%rdx, %rdi
.LBB3_10:
str374:	callq	memmove@PLT
.LBB3_11:
str375:	movq	%r14, 40(%rbx)
str376:	leaq	(%r14,%rbp,8), %rcx
str377:	movq	(%r14), %rax
str378:	movq	%rax, 24(%rbx)
str379:	addq	$512, %rax
str380:	movq	%rax, 32(%rbx)
str381:	movq	%rcx, 72(%rbx)
str382:	movq	(%r14,%rbp,8), %rax
str383:	movq	%rax, 56(%rbx)
str384:	addq	$512, %rax
str385:	movq	%rax, 64(%rbx)
str386:	addq	$8, %rsp
str387:	.cfi_def_cfa_offset 56
str388:	popq	%rbx
str389:	.cfi_def_cfa_offset 48
str390:	popq	%r12
str391:	.cfi_def_cfa_offset 40
str392:	popq	%r13
str393:	.cfi_def_cfa_offset 32
str394:	popq	%r14
str395:	.cfi_def_cfa_offset 24
str396:	popq	%r15
str397:	.cfi_def_cfa_offset 16
str398:	popq	%rbp
str399:	.cfi_def_cfa_offset 8
str400:	retq
.LBB3_12:
str401:	.cfi_def_cfa_offset 64
str402:	callq	_ZSt17__throw_bad_allocv@PLT
.Lfunc_end3:
str403:	.size	_ZNSt5dequeI7vhbkontSaIS0_EE17_M_reallocate_mapEmb, .Lfunc_end3-_ZNSt5dequeI7vhbkontSaIS0_EE17_M_reallocate_mapEmb
str404:	.cfi_endproc
str405:
str406:	.type	.L.str,@object
str407:	.section	.rodata.str1.1,"aMS",@progbits,1
.L.str:
str408:	.asciz	"cannot create std::deque larger than max_size()"
str409:	.size	.L.str, 48
str410:
str411:
str412:	.ident	"clang version 7.1.0 (tags/RELEASE_710/final)"
str413:	nop
str414:	nop
str415: nop
	

str0_rf:	.text
str1_rf:	.file	"sum_tree.tpal_orig.cpp"
str2_rf:	.globl	_Z25tpalrts_prmlist_push_back12tpalrts_prmlP17tpalrts_prml_node_rf
str3_rf:	.p2align	4, 0x90
str4_rf:	.type	_Z25tpalrts_prmlist_push_back12tpalrts_prmlP17tpalrts_prml_node_rf,@function
_Z25tpalrts_prmlist_push_back12tpalrts_prmlP17tpalrts_prml_node_rf:
str5_rf:	testq	%rsi, %rsi
str6_rf:	je	.LBB0_2_rf
str7_rf:	movq	%rdx, 8(%rsi)
.LBB0_2_rf:
str8_rf:	testq	%rdi, %rdi
str9_rf:	cmoveq	%rdx, %rdi
str10_rf:	movq	%rdi, %rax
str11_rf:	retq
.Lfunc_end0_rf:
str12_rf:	.size	_Z25tpalrts_prmlist_push_back12tpalrts_prmlP17tpalrts_prml_node_rf, .Lfunc_end0-_Z25tpalrts_prmlist_push_back12tpalrts_prmlP17tpalrts_prml_node
str13_rf:
str14_rf:	.globl	_Z24tpalrts_prmlist_pop_back12tpalrts_prml_rf
str15_rf:	.p2align	4, 0x90
str16_rf:	.type	_Z24tpalrts_prmlist_pop_back12tpalrts_prml_rf,@function
_Z24tpalrts_prmlist_pop_back12tpalrts_prml_rf:
str17_rf:	movq	(%rsi), %rdx
str18_rf:	testq	%rdx, %rdx
str19_rf:	je	.LBB1_1_rf
str20_rf:	movq	%rdi, %rax
str21_rf:	movq	$0, 8(%rdx)
str22_rf:	movq	$0, (%rsi)
str23_rf:	retq
.LBB1_1_rf:
str24_rf:	xorl	%edi, %edi
str25_rf:	movq	%rdi, %rax
str26_rf:	retq
.Lfunc_end1_rf:
str27_rf:	.size	_Z24tpalrts_prmlist_pop_back12tpalrts_prml_rf, .Lfunc_end1-_Z24tpalrts_prmlist_pop_back12tpalrts_prml
str28_rf:
str29_rf:	.globl	_Z13sum_heartbeatP4nodeRSt5dequeI7vhbkontSaIS2_EE12tpalrts_prml_rf
str30_rf:	.p2align	4, 0x90
str31_rf:	.type	_Z13sum_heartbeatP4nodeRSt5dequeI7vhbkontSaIS2_EE12tpalrts_prml_rf,@function
_Z13sum_heartbeatP4nodeRSt5dequeI7vhbkontSaIS2_EE12tpalrts_prml_rf:
str32_rf:	.cfi_startproc
str33_rf:	pushq	%rbp
str34_rf:	.cfi_def_cfa_offset 16
str35_rf:	pushq	%r15
str36_rf:	.cfi_def_cfa_offset 24
str37_rf:	pushq	%r14
str38_rf:	.cfi_def_cfa_offset 32
str39_rf:	pushq	%r13
str40_rf:	.cfi_def_cfa_offset 40
str41_rf:	pushq	%r12
str42_rf:	.cfi_def_cfa_offset 48
str43_rf:	pushq	%rbx
str44_rf:	.cfi_def_cfa_offset 56
str45_rf:	subq	$40, %rsp
str46_rf:	.cfi_def_cfa_offset 96
str47_rf:	.cfi_offset %rbx, -56
str48_rf:	.cfi_offset %r12, -48
str49_rf:	.cfi_offset %r13, -40
str50_rf:	.cfi_offset %r14, -32
str51_rf:	.cfi_offset %r15, -24
str52_rf:	.cfi_offset %rbp, -16
str53_rf:	nop
str54_rf:	movq	%rcx, %rax
str55_rf:	movq	%rdx, %r14
str56_rf:	movq	%rsi, %rbx
str57_rf:	movq	%rdi, %r12
str58_rf:	movl	$512, %ebp
str59_rf:	nop
str60_rf:	jmp	.LBB2_3
str61_rf:	jmp	.LBB2_2_rf
str62_rf:	.p2align	4, 0x90
.LBB2_32_rf:
str63_rf:	movq	8(%r12), %r12
str64_rf:	testq	%r14, %r14
str65_rf:	cmoveq	%rax, %r14
str66_rf:	cmpb	$0, (%r13)
str67_rf:	je	.LBB2_2_rf
.LBB2_3_rf:
str68_rf:	movq	%r14, %rdi
str69_rf:	movq	%rax, %rsi
str70_rf:	callq	_Z26sum_tree_heartbeat_handler12tpalrts_prml@PLT
str71_rf:	movq	%rax, %r14
str72_rf:	movq	%rdx, %r15
str73_rf:	testq	%r12, %r12
str74_rf:	je	.LBB2_5_rf
.LBB2_23_rf:
str75_rf:	movq	64(%rbx), %rax
str76_rf:	movq	48(%rbx), %rcx
str77_rf:	addq	$-32, %rax
str78_rf:	cmpq	%rax, %rcx
str79_rf:	je	.LBB2_24_rf
str80_rf:	movl	$0, (%rcx)
str81_rf:	movq	%r15, 8(%rcx)
str82_rf:	movq	$0, 16(%rcx)
str83_rf:	movq	%r12, 24(%rcx)
str84_rf:	movq	48(%rbx), %rax
str85_rf:	addq	$32, %rax
str86_rf:	movq	%rax, 48(%rbx)
str87_rf:	cmpq	56(%rbx), %rax
str88_rf:	je	.LBB2_29_rf
str89_rf:	addq	$-24, %rax
str90_rf:	testq	%r15, %r15
str91_rf:	jne	.LBB2_31_rf
str92_rf:	jmp	.LBB2_32_rf
str93_rf:	.p2align	4, 0x90
.LBB2_24_rf:
str94_rf:	movq	72(%rbx), %rax
str95_rf:	movq	32(%rbx), %rsi
str96_rf:	subq	56(%rbx), %rcx
str97_rf:	subq	16(%rbx), %rsi
str98_rf:	sarq	$5, %rcx
str99_rf:	movq	%rax, %rdx
str100_rf:	subq	40(%rbx), %rdx
str101_rf:	sarq	$5, %rsi
str102_rf:	leaq	(%rcx,%rdx,2), %rcx
str103_rf:	movabsq	$288230376151711759, %rdx
str104_rf:	addq	%rcx, %rsi
str105_rf:	cmpq	%rdx, %rsi
str106_rf:	je	.LBB2_33_rf
str107_rf:	movq	8(%rbx), %rcx
str108_rf:	subq	(%rbx), %rax
str109_rf:	sarq	$3, %rax
str110_rf:	subq	%rax, %rcx
str111_rf:	cmpq	$1, %rcx
str112_rf:	ja	.LBB2_27_rf
str113_rf:	movl	$1, %esi
str114_rf:	xorl	%edx, %edx
str115_rf:	movq	%rbx, %rdi
str116_rf:	callq	_ZNSt5dequeI7vhbkontSaIS0_EE17_M_reallocate_mapEmb@PLT
.LBB2_27_rf:
str117_rf:	movl	$512, %edi
str118_rf:	callq	_Znwm@PLT
str119_rf:	movq	72(%rbx), %rcx
str120_rf:	movq	%rax, 8(%rcx)
str121_rf:	movq	48(%rbx), %rax
str122_rf:	movl	$0, (%rax)
str123_rf:	movq	%r15, 8(%rax)
str124_rf:	movq	$0, 16(%rax)
str125_rf:	movq	%r12, 24(%rax)
str126_rf:	movq	72(%rbx), %rax
str127_rf:	leaq	8(%rax), %rcx
str128_rf:	movq	%rcx, 72(%rbx)
str129_rf:	movq	8(%rax), %rax
str130_rf:	leaq	512(%rax), %rcx
str131_rf:	movq	%rax, 56(%rbx)
str132_rf:	movq	%rcx, 64(%rbx)
str133_rf:	movq	%rax, 48(%rbx)
.LBB2_29_rf:
str134_rf:	movq	72(%rbx), %rax
str135_rf:	movq	-8(%rax), %rax
str136_rf:	addq	%rbp, %rax
str137_rf:	addq	$-24, %rax
str138_rf:	testq	%r15, %r15
str139_rf:	je	.LBB2_32_rf
.LBB2_31_rf:
str140_rf:	movq	%rax, 8(%r15)
str141_rf:	jmp	.LBB2_32_rf
str142_rf:	.p2align	4, 0x90
.LBB2_2_rf:
str143_rf:	movq	%rax, %r15
str144_rf:	testq	%r12, %r12
str145_rf:	jne	.LBB2_23_rf
.LBB2_5_rf:
str146_rf:	leaq	.LJTI2_0_rf(%rip), %r12
str147_rf:	movl	$0, 12(%rsp)
str148_rf:	jmp	.LBB2_6_rf
.LBB2_15_rf:
str149_rf:	addq	$-32, %rdi
str150_rf:	movq	%rdi, 48(%rbx)
str151_rf:	.p2align	4, 0x90
.LBB2_6_rf:
str152_rf:	cmpb	$0, (%r13)
str153_rf:	je	.LBB2_8_rf
str154_rf:	movq	%r14, %rdi
str155_rf:	movq	%r15, %rsi
str156_rf:	callq	_Z26sum_tree_heartbeat_handler12tpalrts_prml@PLT
str157_rf:	movq	%rax, %r14
str158_rf:	movq	%rdx, %r15
.LBB2_8_rf:
str159_rf:	movq	48(%rbx), %rdi
str160_rf:	movq	56(%rbx), %rax
str161_rf:	movq	%rdi, %rcx
str162_rf:	cmpq	%rax, %rdi
str163_rf:	je	.LBB2_9_rf
str164_rf:	movl	-32(%rcx), %edx
str165_rf:	cmpq	$4, %rdx
str166_rf:	ja	.LBB2_6_rf
.LBB2_11_rf:
str167_rf:	movslq	(%r12,%rdx,4), %rsi
str168_rf:	addq	%r12, %rsi
str169_rf:	jmpq	*%rsi
.LBB2_14_rf:
str170_rf:	movl	12(%rsp), %edx
str171_rf:	addl	-24(%rcx), %edx
str172_rf:	movq	-16(%rcx), %rcx
str173_rf:	addl	(%rcx), %edx
str174_rf:	cmpq	%rax, %rdi
str175_rf:	movl	%edx, 12(%rsp)
str176_rf:	jne	.LBB2_15_rf
str177_rf:	callq	_ZdlPv@PLT
str178_rf:	movq	72(%rbx), %rax
str179_rf:	leaq	-8(%rax), %rcx
str180_rf:	movq	%rcx, 72(%rbx)
str181_rf:	movq	-8(%rax), %rax
str182_rf:	movq	%rax, 56(%rbx)
str183_rf:	leaq	512(%rax), %rcx
str184_rf:	addq	$480, %rax
str185_rf:	movq	%rcx, 64(%rbx)
str186_rf:	movq	%rax, 48(%rbx)
str187_rf:	jmp	.LBB2_6_rf
str188_rf:	.p2align	4, 0x90
.LBB2_9_rf:
str189_rf:	movq	72(%rbx), %rcx
str190_rf:	movq	-8(%rcx), %rcx
str191_rf:	addq	%rbp, %rcx
str192_rf:	movl	-32(%rcx), %edx
str193_rf:	cmpq	$4, %rdx
str194_rf:	ja	.LBB2_6_rf
str195_rf:	jmp	.LBB2_11_rf
.LBB2_12_rf:
str196_rf:	movq	(%r15), %rax
str197_rf:	testq	%rax, %rax
str198_rf:	je	.LBB2_13_rf
str199_rf:	movq	$0, 8(%rax)
str200_rf:	movq	$0, (%r15)
str201_rf:	jmp	.LBB2_22_rf
.LBB2_13_rf:
str202_rf:	xorl	%r14d, %r14d
.LBB2_22_rf:
str203_rf:	movq	-8(%rcx), %rdx
str204_rf:	movl	12(%rsp), %esi
str205_rf:	movq	16(%rdx), %r12
str206_rf:	movl	$1, -32(%rcx)
str207_rf:	movl	%esi, -24(%rcx)
str208_rf:	movq	%rdx, -16(%rcx)
str209_rf:	cmpb	$0, (%r13)
str210_rf:	jne	.LBB2_3_rf
str211_rf:	jmp	.LBB2_2_rf
.LBB2_18_rf:
str212_rf:	xorl	%eax, %eax
str213_rf:	cmpl	$3, %edx
str214_rf:	movq	-24(%rcx), %rdx
str215_rf:	movl	12(%rsp), %esi
str216_rf:	setne	%al
str217_rf:	movl	%esi, (%rdx,%rax,4)
str218_rf:	movq	-16(%rcx), %rdi
str219_rf:	jne	.LBB2_20_rf
str220_rf:	movq	-8(%rcx), %rax
str221_rf:	vmovups	(%rax), %xmm0
str222_rf:	vmovaps	%xmm0, 16(%rsp)
str223_rf:	vmovups	(%rbx), %ymm2
str224_rf:	vmovups	32(%rbx), %ymm3
str225_rf:	vmovups	48(%rbx), %ymm4
str226_rf:	vmovups	16(%rax), %ymm0
str227_rf:	vmovups	48(%rax), %ymm1
str228_rf:	vmovups	%ymm3, 32(%rax)
str229_rf:	vmovups	%ymm4, 48(%rax)
str230_rf:	vmovups	%ymm2, (%rax)
str231_rf:	vmovaps	16(%rsp), %xmm2
str232_rf:	vmovups	%xmm2, (%rbx)
str233_rf:	vmovups	%ymm0, 16(%rbx)
str234_rf:	vmovups	%ymm1, 48(%rbx)
.LBB2_20_rf:
str235_rf:	addq	$40, %rsp
str236_rf:	.cfi_def_cfa_offset 56
str237_rf:	popq	%rbx
str238_rf:	.cfi_def_cfa_offset 48
str239_rf:	popq	%r12
str240_rf:	.cfi_def_cfa_offset 40
str241_rf:	popq	%r13
str242_rf:	.cfi_def_cfa_offset 32
str243_rf:	popq	%r14
str244_rf:	.cfi_def_cfa_offset 24
str245_rf:	popq	%r15
str246_rf:	.cfi_def_cfa_offset 16
str247_rf:	popq	%rbp
str248_rf:	.cfi_def_cfa_offset 8
str249_rf:	vzeroupper
str250_rf:	jmp	_Z4joinP4task@PLT
.LBB2_17_rf:
str251_rf:	.cfi_def_cfa_offset 96
str252_rf:	movq	answer@GOTPCREL(%rip), %rax
str253_rf:	movl	12(%rsp), %ecx
str254_rf:	movl	%ecx, (%rax)
str255_rf:	addq	$40, %rsp
str256_rf:	.cfi_def_cfa_offset 56
str257_rf:	popq	%rbx
str258_rf:	.cfi_def_cfa_offset 48
str259_rf:	popq	%r12
str260_rf:	.cfi_def_cfa_offset 40
str261_rf:	popq	%r13
str262_rf:	.cfi_def_cfa_offset 32
str263_rf:	popq	%r14
str264_rf:	.cfi_def_cfa_offset 24
str265_rf:	popq	%r15
str266_rf:	.cfi_def_cfa_offset 16
str267_rf:	popq	%rbp
str268_rf:	.cfi_def_cfa_offset 8
str269_rf:	retq
.LBB2_33_rf:
str270_rf:	.cfi_def_cfa_offset 96
str271_rf:	leaq	.L.str_rf(%rip), %rdi
str272_rf:	callq	_ZSt20__throw_length_errorPKc@PLT
.Lfunc_end2_rf:
str273_rf:	.size	_Z13sum_heartbeatP4nodeRSt5dequeI7vhbkontSaIS2_EE12tpalrts_prml_rf, .Lfunc_end2-_Z13sum_heartbeatP4nodeRSt5dequeI7vhbkontSaIS2_EE12tpalrts_prml
str274_rf:	.cfi_endproc
str275_rf:	.section	.rodata,"a",@progbits
str276_rf:	.p2align	2
.LJTI2_0_rf:
str277_rf:	.long	.LBB2_12-.LJTI2_0
str278_rf:	.long	.LBB2_14-.LJTI2_0
str279_rf:	.long	.LBB2_17-.LJTI2_0
str280_rf:	.long	.LBB2_18-.LJTI2_0
str281_rf:	.long	.LBB2_18-.LJTI2_0
str282_rf:
str283_rf:	.section	.text._ZNSt5dequeI7vhbkontSaIS0_EE17_M_reallocate_mapEmb,"axG",@progbits,_ZNSt5dequeI7vhbkontSaIS0_EE17_M_reallocate_mapEmb_rf,comdat
str284_rf:	.weak	_ZNSt5dequeI7vhbkontSaIS0_EE17_M_reallocate_mapEmb_rf
str285_rf:	.p2align	4, 0x90
str286_rf:	.type	_ZNSt5dequeI7vhbkontSaIS0_EE17_M_reallocate_mapEmb_rf,@function
_ZNSt5dequeI7vhbkontSaIS0_EE17_M_reallocate_mapEmb_rf:
str287_rf:	.cfi_startproc
str288_rf:	pushq	%rbp
str289_rf:	.cfi_def_cfa_offset 16
str290_rf:	pushq	%r15
str291_rf:	.cfi_def_cfa_offset 24
str292_rf:	pushq	%r14
str293_rf:	.cfi_def_cfa_offset 32
str294_rf:	pushq	%r13
str295_rf:	.cfi_def_cfa_offset 40
str296_rf:	pushq	%r12
str297_rf:	.cfi_def_cfa_offset 48
str298_rf:	pushq	%rbx
str299_rf:	.cfi_def_cfa_offset 56
str300_rf:	pushq	%rax
str301_rf:	.cfi_def_cfa_offset 64
str302_rf:	.cfi_offset %rbx, -56
str303_rf:	.cfi_offset %r12, -48
str304_rf:	.cfi_offset %r13, -40
str305_rf:	.cfi_offset %r14, -32
str306_rf:	.cfi_offset %r15, -24
str307_rf:	.cfi_offset %rbp, -16
str308_rf:	movl	%edx, %r12d
str309_rf:	movq	72(%rdi), %rdx
str310_rf:	movq	%rsi, %r14
str311_rf:	movq	40(%rdi), %rsi
str312_rf:	movq	8(%rdi), %rax
str313_rf:	movq	%rdi, %rbx
str314_rf:	movq	%rdx, %rbp
str315_rf:	subq	%rsi, %rbp
str316_rf:	sarq	$3, %rbp
str317_rf:	leaq	1(%rbp,%r14), %r15
str318_rf:	leaq	(%r15,%r15), %rcx
str319_rf:	cmpq	%rcx, %rax
str320_rf:	jbe	.LBB3_4_rf
str321_rf:	subq	%r15, %rax
str322_rf:	movabsq	$4611686018427387902, %rcx
str323_rf:	andq	%rax, %rcx
str324_rf:	xorl	%eax, %eax
str325_rf:	shlq	$2, %rcx
str326_rf:	addq	(%rbx), %rcx
str327_rf:	testb	%r12b, %r12b
str328_rf:	cmovneq	%r14, %rax
str329_rf:	addq	$8, %rdx
str330_rf:	subq	%rsi, %rdx
str331_rf:	leaq	(%rcx,%rax,8), %r14
str332_rf:	cmpq	%rsi, %r14
str333_rf:	jae	.LBB3_8_rf
str334_rf:	testq	%rdx, %rdx
str335_rf:	je	.LBB3_11_rf
str336_rf:	movq	%r14, %rdi
str337_rf:	jmp	.LBB3_10_rf
.LBB3_4_rf:
str338_rf:	cmpq	%r14, %rax
str339_rf:	movq	%rax, %rcx
str340_rf:	cmovbq	%r14, %rcx
str341_rf:	leaq	2(%rax,%rcx), %r13
str342_rf:	movq	%r13, %rax
str343_rf:	shrq	$60, %rax
str344_rf:	jne	.LBB3_12_rf
str345_rf:	leaq	(,%r13,8), %rdi
str346_rf:	callq	_Znwm@PLT
str347_rf:	movq	%r13, %rdx
str348_rf:	movabsq	$4611686018427387902, %rcx
str349_rf:	movq	40(%rbx), %rsi
str350_rf:	subq	%r15, %rdx
str351_rf:	movq	%rax, %r15
str352_rf:	andq	%rdx, %rcx
str353_rf:	movq	72(%rbx), %rdx
str354_rf:	leaq	(%rax,%rcx,4), %rax
str355_rf:	xorl	%ecx, %ecx
str356_rf:	testb	%r12b, %r12b
str357_rf:	cmovneq	%r14, %rcx
str358_rf:	leaq	(%rax,%rcx,8), %r14
str359_rf:	addq	$8, %rdx
str360_rf:	subq	%rsi, %rdx
str361_rf:	je	.LBB3_7_rf
str362_rf:	movq	%r14, %rdi
str363_rf:	callq	memmove@PLT
.LBB3_7_rf:
str364_rf:	movq	(%rbx), %rdi
str365_rf:	callq	_ZdlPv@PLT
str366_rf:	movq	%r15, (%rbx)
str367_rf:	movq	%r13, 8(%rbx)
str368_rf:	jmp	.LBB3_11_rf
.LBB3_8_rf:
str369_rf:	testq	%rdx, %rdx
str370_rf:	je	.LBB3_11_rf
str371_rf:	leaq	1(%rbp), %rax
str372_rf:	leaq	(%r14,%rax,8), %rdi
str373_rf:	subq	%rdx, %rdi
.LBB3_10_rf:
str374_rf:	callq	memmove@PLT
.LBB3_11_rf:
str375_rf:	movq	%r14, 40(%rbx)
str376_rf:	leaq	(%r14,%rbp,8), %rcx
str377_rf:	movq	(%r14), %rax
str378_rf:	movq	%rax, 24(%rbx)
str379_rf:	addq	$512, %rax
str380_rf:	movq	%rax, 32(%rbx)
str381_rf:	movq	%rcx, 72(%rbx)
str382_rf:	movq	(%r14,%rbp,8), %rax
str383_rf:	movq	%rax, 56(%rbx)
str384_rf:	addq	$512, %rax
str385_rf:	movq	%rax, 64(%rbx)
str386_rf:	addq	$8, %rsp
str387_rf:	.cfi_def_cfa_offset 56
str388_rf:	popq	%rbx
str389_rf:	.cfi_def_cfa_offset 48
str390_rf:	popq	%r12
str391_rf:	.cfi_def_cfa_offset 40
str392_rf:	popq	%r13
str393_rf:	.cfi_def_cfa_offset 32
str394_rf:	popq	%r14
str395_rf:	.cfi_def_cfa_offset 24
str396_rf:	popq	%r15
str397_rf:	.cfi_def_cfa_offset 16
str398_rf:	popq	%rbp
str399_rf:	.cfi_def_cfa_offset 8
str400_rf:	retq
.LBB3_12_rf:
str401_rf:	.cfi_def_cfa_offset 64
str402_rf:	callq	_ZSt17__throw_bad_allocv@PLT
.Lfunc_end3_rf:
str403_rf:	.size	_ZNSt5dequeI7vhbkontSaIS0_EE17_M_reallocate_mapEmb_rf, .Lfunc_end3-_ZNSt5dequeI7vhbkontSaIS0_EE17_M_reallocate_mapEmb
str404_rf:	.cfi_endproc
str405_rf:
str406_rf:	.type	.L.str_rf,@object
str407_rf:	.section	.rodata.str1.1,"aMS",@progbits,1
.L.str_rf:
str408_rf:	.asciz	"cannot create std::deque larger than max_size()"
str409_rf:	.size	.L.str_rf, 48
str410_rf:
str411_rf:
str412_rf:	.ident	"clang version 7.1.0 (tags/RELEASE_710/final)"
str413_rf:	nop
str414_rf:	nop
str415_rf:	nop

